

Microchip MPLAB XC8 Assembler V2.32 build 20210201212658 
                                                                                               Fri May 21 15:56:03 2021

Microchip MPLAB XC8 C Compiler v2.32 (Free license) build 20210201212658 Og1 
     1                           	processor	18F57Q84
     2                           	fnconf	rparam,??,?,0
     3                           	pagewidth 120
     4                           	opt	flic
     5                           	psect	nvBANK5,global,class=BANK5,space=1,delta=1,lowdata,noexec
     6                           	psect	smallconst,global,reloc=2,class=SMALLCONST,delta=1,noexec
     7                           	psect	cinit,global,reloc=2,class=CODE,delta=1
     8                           	psect	bssBANK5,global,class=BANK5,space=1,delta=1,lowdata,noexec
     9                           	psect	cstackBANK5,global,class=BANK5,space=1,delta=1,lowdata,noexec
    10                           	psect	cstackCOMRAM,global,class=COMRAM,space=1,delta=1,lowdata,noexec
    11                           	psect	text0,global,reloc=2,class=CODE,delta=1
    12                           	psect	text1,global,reloc=2,class=CODE,delta=1
    13                           	psect	text2,global,reloc=2,class=CODE,delta=1
    14                           	psect	text3,global,reloc=2,class=CODE,delta=1
    15                           	psect	text4,global,reloc=2,class=CODE,delta=1
    16                           	psect	text5,global,reloc=2,class=CODE,delta=1
    17                           	psect	text6,global,reloc=2,class=CODE,delta=1
    18                           	psect	text7,global,reloc=2,class=CODE,delta=1
    19                           	psect	text8,global,reloc=2,class=CODE,delta=1
    20                           	psect	text9,global,reloc=2,class=CODE,delta=1
    21                           	psect	text10,global,reloc=2,class=CODE,delta=1
    22                           	psect	text11,global,reloc=2,class=CODE,delta=1
    23                           	psect	text12,global,reloc=2,class=CODE,delta=1
    24                           	psect	text13,global,reloc=2,class=CODE,delta=1
    25                           	psect	text14,global,reloc=2,class=CODE,delta=1
    26                           	psect	text15,global,reloc=2,class=CODE,delta=1
    27                           	psect	text16,global,reloc=2,class=CODE,delta=1
    28                           	psect	text17,global,reloc=2,class=CODE,delta=1
    29                           	psect	text18,global,reloc=2,class=CODE,delta=1
    30                           	psect	text19,global,reloc=2,class=CODE,delta=1,inline
    31                           	psect	text20,global,reloc=2,class=CODE,delta=1,inline
    32                           	psect	text21,global,reloc=2,class=CODE,delta=1,inline
    33                           	psect	text22,global,reloc=2,class=CODE,delta=1
    34                           	psect	text23,global,reloc=2,class=CODE,delta=1
    35                           	psect	text24,global,reloc=2,class=CODE,delta=1
    36                           	psect	text25,global,reloc=2,class=CODE,delta=1
    37                           	psect	text26,global,reloc=2,class=CODE,delta=1,inline
    38                           	psect	text27,global,reloc=2,class=CODE,delta=1,inline
    39                           	psect	text28,global,reloc=2,class=CODE,delta=1,inline
    40                           	psect	text29,global,reloc=2,class=CODE,delta=1,group=3
    41                           	psect	text30,global,reloc=2,class=CODE,delta=1,group=1
    42                           	psect	text31,global,reloc=2,class=CODE,delta=1,group=1
    43                           	psect	text32,global,reloc=2,class=CODE,delta=1,group=1
    44                           	psect	text33,global,reloc=2,class=CODE,delta=1,group=1
    45                           	psect	text34,global,reloc=2,class=CODE,delta=1,group=3
    46                           	psect	text35,global,reloc=2,class=CODE,delta=1,group=3
    47                           	psect	text36,global,reloc=2,class=CODE,delta=1,group=3
    48                           	psect	text37,global,reloc=2,class=CODE,delta=1
    49                           	psect	text38,global,reloc=2,class=CODE,delta=1
    50                           	psect	text39,global,reloc=2,class=CODE,delta=1,group=3
    51                           	psect	text40,global,reloc=2,class=CODE,delta=1,group=2
    52                           	psect	text41,global,reloc=2,class=CODE,delta=1,group=2
    53                           	psect	text42,global,reloc=2,class=CODE,delta=1
    54                           	psect	ivt0x8,global,reloc=2,class=CODE,delta=1,noexec,keep,optim=
    55                           	psect	intsave_regs,global,class=BIGRAM,space=1,delta=1,noexec
    56                           	psect	text43,global,reloc=2,class=CODE,delta=1
    57                           	psect	rparam,global,class=COMRAM,space=1,delta=1,noexec
    58                           	psect	idloc,global,abs,ovrld,class=IDLOC,space=5,delta=1,noexec
    59                           	psect	config,global,abs,ovrld,class=CONFIG,space=4,delta=1,noexec
    60  0000                     
    61                           ; Version 2.32
    62                           ; Generated 10/02/2021 GMT
    63                           ; 
    64                           ; Copyright © 2021, Microchip Technology Inc. and its subsidiaries ("Microchip")
    65                           ; All rights reserved.
    66                           ; 
    67                           ; This software is developed by Microchip Technology Inc. and its subsidiaries ("Microch
      +                          ip").
    68                           ; 
    69                           ; Redistribution and use in source and binary forms, with or without modification, are
    70                           ; permitted provided that the following conditions are met:
    71                           ; 
    72                           ;     1. Redistributions of source code must retain the above copyright notice, this lis
      +                          t of
    73                           ;        conditions and the following disclaimer.
    74                           ; 
    75                           ;     2. Redistributions in binary form must reproduce the above copyright notice, this 
      +                          list
    76                           ;        of conditions and the following disclaimer in the documentation and/or other
    77                           ;        materials provided with the distribution. Publication is not required when
    78                           ;        this file is used in an embedded application.
    79                           ; 
    80                           ;     3. Microchip's name may not be used to endorse or promote products derived from th
      +                          is
    81                           ;        software without specific prior written permission.
    82                           ; 
    83                           ; THIS SOFTWARE IS PROVIDED BY MICROCHIP "AS IS" AND ANY EXPRESS OR IMPLIED WARRANTIES,
    84                           ; INCLUDING, BUT NOT LIMITED TO, THE IMPLIED WARRANTIES OF MERCHANTABILITY AND FITNESS F
      +                          OR
    85                           ; PURPOSE ARE DISCLAIMED.  IN NO EVENT SHALL MICROCHIP BE LIABLE FOR ANY DIRECT, INDIREC
      +                          T,
    86                           ; INCIDENTAL, SPECIAL, EXEMPLARY, OR CONSEQUENTIAL DAMAGES (INCLUDING BUT NOT LIMITED TO
    87                           ; PROCUREMENT OF SUBSTITUTE GOODS OR SERVICES; LOSS OF USE, DATA OR PROFITS; OR BUSINESS
    88                           ; INTERRUPTION) HOWSOEVER CAUSED AND ON ANY THEORY OF LIABILITY, WHETHER IN CONTRACT, ST
      +                          RICT
    89                           ; LIABILITY, OR TORT (INCLUDING NEGLIGENCE OR OTHERWISE) ARISING IN ANY WAY OUT OF THE U
      +                          SE OF
    90                           ; THIS SOFTWARE, EVEN IF ADVISED OF THE POSSIBILITY OF SUCH DAMAGE.
    91                           ; 
    92                           ; 
    93                           ; Code-generator required, PIC18F57Q84 Definitions
    94                           ; 
    95                           ; SFR Addresses
    96  0000                     
    97 ;; Function _ADC_DefaultADI_ISR is unused but had its address taken
    98  0000                     
    99 ;; Function _ADC_DefaultContext1Threshold_ISR is unused but had its address taken
   100  0000                     
   101 ;; Function _ADC_DefaultContext2Threshold_ISR is unused but had its address taken
   102  0000                     
   103 ;; Function _ADC_DefaultContext3Threshold_ISR is unused but had its address taken
   104  0000                     
   105 ;; Function _ADC_DefaultActiveClockTuning_ISR is unused but had its address taken
   106  0000                     
   107 ;; Function _UART1_DefaultFramingErrorHandler is unused but had its address taken
   108  0000                     
   109 ;; Function _UART1_DefaultOverrunErrorHandler is unused but had its address taken
   110  0000                     
   111 ;; Function _UART1_DefaultErrorHandler is unused but had its address taken
   112  0000                     
   113                           	psect	nvBANK5
   114  0005A4                     __pnvBANK5:
   115                           	callstack 0
   116  0005A4                     _ADC_ActiveClockTuning_ISR:
   117                           	callstack 0
   118  0005A4                     	ds	3
   119  0005A7                     _ADC_Context4Thereshld_ISR:
   120                           	callstack 0
   121  0005A7                     	ds	3
   122  0005AA                     _ADC_Context3Thereshld_ISR:
   123                           	callstack 0
   124  0005AA                     	ds	3
   125  0005AD                     _ADC_Context2Thereshld_ISR:
   126                           	callstack 0
   127  0005AD                     	ds	3
   128  0005B0                     _ADC_Context1Thereshld_ISR:
   129                           	callstack 0
   130  0005B0                     	ds	3
   131  0005B3                     _ADC_ConversionComplete_ISR:
   132                           	callstack 0
   133  0005B3                     	ds	3
   134  0000                     _PMD8	set	104
   135  0000                     _PMD7	set	103
   136  0000                     _PMD6	set	102
   137  0000                     _PMD5	set	101
   138  0000                     _PMD4	set	100
   139  0000                     _PMD3	set	99
   140  0000                     _PMD2	set	98
   141  0000                     _PMD1	set	97
   142  0000                     _PMD0	set	96
   143  0000                     _OSCTUNE	set	176
   144  0000                     _OSCFRQ	set	177
   145  0000                     _OSCEN	set	179
   146  0000                     _OSCCON3	set	175
   147  0000                     _OSCCON1	set	173
   148  0000                     _PLLR	set	1424
   149  0000                     _U1TXB	set	675
   150  0000                     _U1RXB	set	673
   151  0000                     _U1ERRIRbits	set	690
   152  0000                     _U1CON0bits	set	683
   153  0000                     _U1ERRIE	set	691
   154  0000                     _U1ERRIR	set	690
   155  0000                     _U1UIR	set	689
   156  0000                     _U1FIFO	set	688
   157  0000                     _U1BRGH	set	687
   158  0000                     _U1BRGL	set	686
   159  0000                     _U1CON2	set	685
   160  0000                     _U1CON1	set	684
   161  0000                     _U1CON0	set	683
   162  0000                     _U1P3H	set	682
   163  0000                     _U1P3L	set	681
   164  0000                     _U1P2H	set	680
   165  0000                     _U1P2L	set	679
   166  0000                     _U1P1H	set	678
   167  0000                     _U1P1L	set	677
   168  0000                     _U1RXPPS	set	626
   169  0000                     _RF0PPS	set	553
   170  0000                     _ADACTPPS	set	617
   171  0000                     _T0CON0bits	set	794
   172  0000                     _T0CON0	set	794
   173  0000                     _TMR0L	set	792
   174  0000                     _TMR0H	set	793
   175  0000                     _T0CON1	set	795
   176  0000                     _ADCPbits	set	984
   177  0000                     _ADCON1bits	set	1012
   178  0000                     _ADERRL	set	989
   179  0000                     _ADERRH	set	990
   180  0000                     _ADPREVL	set	1000
   181  0000                     _ADPREVH	set	1001
   182  0000                     _ADFLTRL	set	993
   183  0000                     _ADFLTRH	set	994
   184  0000                     _ADSTATbits	set	1015
   185  0000                     _ADCON2bits	set	1013
   186  0000                     _ADCON3bits	set	1014
   187  0000                     _ADCSEL4bits	set	1023
   188  0000                     _ADCSEL3bits	set	1022
   189  0000                     _ADCSEL2bits	set	1021
   190  0000                     _ADCSEL1bits	set	1020
   191  0000                     _ADCON0bits	set	1011
   192  0000                     _ADCSEL4	set	1023
   193  0000                     _ADCSEL3	set	1022
   194  0000                     _ADCSEL2	set	1021
   195  0000                     _ADCSEL1	set	1020
   196  0000                     _ADREF	set	1016
   197  0000                     _ADSTAT	set	1015
   198  0000                     _ADCON3	set	1014
   199  0000                     _ADCON2	set	1013
   200  0000                     _ADCON1	set	1012
   201  0000                     _ADCON0	set	1011
   202  0000                     _ADPREH	set	1010
   203  0000                     _ADPREL	set	1009
   204  0000                     _ADCAP	set	1008
   205  0000                     _ADACQH	set	1007
   206  0000                     _ADACQL	set	1006
   207  0000                     _ADPCH	set	1004
   208  0000                     _ADRESH	set	1003
   209  0000                     _ADRESL	set	1002
   210  0000                     _ADRPT	set	999
   211  0000                     _ADCNT	set	998
   212  0000                     _ADACCU	set	997
   213  0000                     _ADACCH	set	996
   214  0000                     _ADACCL	set	995
   215  0000                     _ADSTPTH	set	992
   216  0000                     _ADSTPTL	set	991
   217  0000                     _ADUTHH	set	988
   218  0000                     _ADUTHL	set	987
   219  0000                     _ADLTHH	set	986
   220  0000                     _ADLTHL	set	985
   221  0000                     _ADCTX	set	1019
   222  0000                     _ADCP	set	984
   223  0000                     _ADCLK	set	1018
   224  0000                     _ADACT	set	1017
   225  0000                     _INLVLF	set	1068
   226  0000                     _INLVLE	set	1060
   227  0000                     _INLVLD	set	1052
   228  0000                     _INLVLC	set	1044
   229  0000                     _INLVLB	set	1036
   230  0000                     _INLVLA	set	1028
   231  0000                     _SLRCONF	set	1067
   232  0000                     _SLRCONE	set	1059
   233  0000                     _SLRCOND	set	1051
   234  0000                     _SLRCONC	set	1043
   235  0000                     _SLRCONB	set	1035
   236  0000                     _SLRCONA	set	1027
   237  0000                     _ODCOND	set	1050
   238  0000                     _ODCONC	set	1042
   239  0000                     _ODCONB	set	1034
   240  0000                     _ODCONA	set	1026
   241  0000                     _ODCONF	set	1066
   242  0000                     _ODCONE	set	1058
   243  0000                     _WPUC	set	1041
   244  0000                     _WPUA	set	1025
   245  0000                     _WPUB	set	1033
   246  0000                     _WPUE	set	1057
   247  0000                     _WPUF	set	1065
   248  0000                     _WPUD	set	1049
   249  0000                     _ANSELA	set	1024
   250  0000                     _ANSELF	set	1064
   251  0000                     _ANSELE	set	1056
   252  0000                     _ANSELB	set	1032
   253  0000                     _ANSELC	set	1040
   254  0000                     _ANSELD	set	1048
   255  0000                     _LATFbits	set	1219
   256  0000                     _PIR4bits	set	1202
   257  0000                     _PIR3bits	set	1201
   258  0000                     _TRISD	set	1225
   259  0000                     _TRISC	set	1224
   260  0000                     _TRISB	set	1223
   261  0000                     _TRISA	set	1222
   262  0000                     _TRISF	set	1227
   263  0000                     _TRISE	set	1226
   264  0000                     _LATC	set	1216
   265  0000                     _LATB	set	1215
   266  0000                     _LATF	set	1219
   267  0000                     _LATA	set	1214
   268  0000                     _LATD	set	1217
   269  0000                     _LATE	set	1218
   270  0000                     _PIR1bits	set	1199
   271  0000                     _PIR2bits	set	1200
   272  0000                     _PIE2bits	set	1184
   273  0000                     _INTCON0bits	set	1238
   274                           
   275                           	psect	smallconst
   276  003800                     __psmallconst:
   277                           	callstack 0
   278  003800  00                 	db	0
   279  003801                     STR_1:
   280  003801  43                 	db	67	;'C'
   281  003802  6F                 	db	111	;'o'
   282  003803  6E                 	db	110	;'n'
   283  003804  74                 	db	116	;'t'
   284  003805  65                 	db	101	;'e'
   285  003806  78                 	db	120	;'x'
   286  003807  31                 	db	49	;'1'
   287  003808  20                 	db	32
   288  003809  41                 	db	65	;'A'
   289  00380A  4E                 	db	78	;'N'
   290  00380B  3A                 	db	58	;':'
   291  00380C  20                 	db	32
   292  00380D  25                 	db	37
   293  00380E  64                 	db	100	;'d'
   294  00380F  0D                 	db	13
   295  003810  0A                 	db	10
   296  003811  00                 	db	0
   297  003812                     STR_2:
   298  003812  43                 	db	67	;'C'
   299  003813  6F                 	db	111	;'o'
   300  003814  6E                 	db	110	;'n'
   301  003815  74                 	db	116	;'t'
   302  003816  65                 	db	101	;'e'
   303  003817  78                 	db	120	;'x'
   304  003818  32                 	db	50	;'2'
   305  003819  20                 	db	32
   306  00381A  41                 	db	65	;'A'
   307  00381B  4E                 	db	78	;'N'
   308  00381C  3A                 	db	58	;':'
   309  00381D  20                 	db	32
   310  00381E  25                 	db	37
   311  00381F  64                 	db	100	;'d'
   312  003820  0D                 	db	13
   313  003821  0A                 	db	10
   314  003822  00                 	db	0
   315  003823                     STR_3:
   316  003823  43                 	db	67	;'C'
   317  003824  6F                 	db	111	;'o'
   318  003825  6E                 	db	110	;'n'
   319  003826  74                 	db	116	;'t'
   320  003827  65                 	db	101	;'e'
   321  003828  78                 	db	120	;'x'
   322  003829  33                 	db	51	;'3'
   323  00382A  20                 	db	32
   324  00382B  41                 	db	65	;'A'
   325  00382C  4E                 	db	78	;'N'
   326  00382D  3A                 	db	58	;':'
   327  00382E  20                 	db	32
   328  00382F  25                 	db	37
   329  003830  64                 	db	100	;'d'
   330  003831  0D                 	db	13
   331  003832  0A                 	db	10
   332  003833  00                 	db	0
   333  003834                     STR_4:
   334  003834  43                 	db	67	;'C'
   335  003835  6F                 	db	111	;'o'
   336  003836  6E                 	db	110	;'n'
   337  003837  74                 	db	116	;'t'
   338  003838  65                 	db	101	;'e'
   339  003839  78                 	db	120	;'x'
   340  00383A  34                 	db	52	;'4'
   341  00383B  20                 	db	32
   342  00383C  41                 	db	65	;'A'
   343  00383D  4E                 	db	78	;'N'
   344  00383E  3A                 	db	58	;':'
   345  00383F  20                 	db	32
   346  003840  25                 	db	37
   347  003841  64                 	db	100	;'d'
   348  003842  0D                 	db	13
   349  003843  0A                 	db	10
   350  003844  00                 	db	0
   351  003845  00                 	db	0	; dummy byte at the end
   352  0000                     
   353                           ; #config settings
   354                           
   355                           	psect	cinit
   356  00486E                     __pcinit:
   357                           	callstack 0
   358  00486E                     start_initialization:
   359                           	callstack 0
   360  00486E                     __initialization:
   361                           	callstack 0
   362                           
   363                           ; Clear objects allocated to BANK5 (68 bytes)
   364  00486E  EE01  F160         	lfsr	0,__pbssBANK5
   365  004872  0E44               	movlw	68
   366  004874                     clear_0:
   367  004874  6AEE               	clrf	postinc0,c
   368  004876  06E8               	decf	wreg,f,c
   369  004878  E1FD               	bnz	clear_0
   370                           
   371                           ;
   372                           ; Setup IVTBASE
   373                           ;
   374  00487A  0104               	movlb	4
   375  00487C  0E08               	movlw	(ivt0x8_base shr 0)& (0+255)
   376  00487E  6F5D               	movwf	93,b
   377  004880  0E00               	movlw	(ivt0x8_base shr (0+8))& (0+255)
   378  004882  6F5E               	movwf	94,b
   379  004884  0E00               	movlw	(ivt0x8_base shr (0+16))& (0+255)
   380  004886  6F5F               	movwf	95,b
   381  004888                     end_of_initialization:
   382                           	callstack 0
   383  004888                     __end_of__initialization:
   384                           	callstack 0
   385  004888  0100               	movlb	0
   386  00488A  EFE4  F023         	goto	_main	;jump to C main() function
   387                           
   388                           	psect	bssBANK5
   389  000560                     __pbssBANK5:
   390                           	callstack 0
   391  000560                     _UART1_ErrorHandler:
   392                           	callstack 0
   393  000560                     	ds	3
   394  000563                     _UART1_OverrunErrorHandler:
   395                           	callstack 0
   396  000563                     	ds	3
   397  000566                     _UART1_FramingErrorHandler:
   398                           	callstack 0
   399  000566                     	ds	3
   400  000569                     _nout:
   401                           	callstack 0
   402  000569                     	ds	2
   403  00056B                     _width:
   404                           	callstack 0
   405  00056B                     	ds	2
   406  00056D                     _prec:
   407                           	callstack 0
   408  00056D                     	ds	2
   409  00056F                     _flags:
   410                           	callstack 0
   411  00056F                     	ds	2
   412  000571                     	ds	2
   413  000573                     	ds	2
   414  000575                     	ds	2
   415  000577                     	ds	2
   416  000579                     	ds	2
   417  00057B                     ADC_UserContext4Threshold_ISR@convertedValue4:
   418                           	callstack 0
   419  00057B                     	ds	2
   420  00057D                     ADC_UserContext4Threshold_ISR@convertedValue3:
   421                           	callstack 0
   422  00057D                     	ds	2
   423  00057F                     ADC_UserContext4Threshold_ISR@convertedValue2:
   424                           	callstack 0
   425  00057F                     	ds	2
   426  000581                     ADC_UserContext4Threshold_ISR@convertedValue1:
   427                           	callstack 0
   428  000581                     	ds	2
   429  000583                     _uart1RxLastError:
   430                           	callstack 0
   431  000583                     	ds	1
   432  000584                     _dbuf:
   433                           	callstack 0
   434  000584                     	ds	32
   435                           
   436                           	psect	cstackBANK5
   437  0005B6                     __pcstackBANK5:
   438                           	callstack 0
   439  0005B6                     ??_ADC_UserContext4Threshold_ISR:
   440                           
   441                           ; 1 bytes @ 0x0
   442  0005B6                     	ds	1
   443  0005B7                     ??_INTERRUPT_InterruptManager:
   444                           
   445                           ; 1 bytes @ 0x1
   446  0005B7                     	ds	4
   447  0005BB                     ADC_SelectContext@context:
   448                           	callstack 0
   449  0005BB                     ADC_SetADIInterruptHandler@InterruptHandler:
   450                           	callstack 0
   451  0005BB                     ADC_SetContext1ThresholdInterruptHandler@InterruptHandler:
   452                           	callstack 0
   453  0005BB                     ADC_SetContext2ThresholdInterruptHandler@InterruptHandler:
   454                           	callstack 0
   455  0005BB                     ADC_SetContext3ThresholdInterruptHandler@InterruptHandler:
   456                           	callstack 0
   457  0005BB                     ADC_SetContext4ThresholdInterruptHandler@InterruptHandler:
   458                           	callstack 0
   459  0005BB                     ADC_SetActiveClockTuningInterruptHandler@InterruptHandler:
   460                           	callstack 0
   461  0005BB                     UART1_SetFramingErrorHandler@interruptHandler:
   462                           	callstack 0
   463  0005BB                     UART1_SetOverrunErrorHandler@interruptHandler:
   464                           	callstack 0
   465  0005BB                     UART1_SetErrorHandler@interruptHandler:
   466                           	callstack 0
   467                           
   468                           ; 3 bytes @ 0x5
   469  0005BB                     	ds	3
   470  0005BE                     
   471                           ; 1 bytes @ 0x8
   472                           
   473                           	psect	cstackCOMRAM
   474  000501                     __pcstackCOMRAM:
   475                           	callstack 0
   476  000501                     ?_strlen:
   477                           	callstack 0
   478  000501                     ?_ADC_GetConversionResult:
   479                           	callstack 0
   480  000501                     ?___aodiv:
   481                           	callstack 0
   482  000501                     ?___aomod:
   483                           	callstack 0
   484  000501                     UART1_Write@txData:
   485                           	callstack 0
   486  000501                     i2ADC_SelectContext@context:
   487                           	callstack 0
   488  000501                     strlen@s:
   489                           	callstack 0
   490  000501                     ___aodiv@dividend:
   491                           	callstack 0
   492  000501                     ___aomod@dividend:
   493                           	callstack 0
   494                           
   495                           ; 8 bytes @ 0x0
   496  000501                     	ds	1
   497  000502                     putch@txData:
   498                           	callstack 0
   499                           
   500                           ; 1 bytes @ 0x1
   501  000502                     	ds	1
   502  000503                     ??_ADC_GetConversionResult:
   503  000503                     fputc@c:
   504                           	callstack 0
   505  000503                     strlen@a:
   506                           	callstack 0
   507                           
   508                           ; 2 bytes @ 0x2
   509  000503                     	ds	2
   510  000505                     fputc@fp:
   511                           	callstack 0
   512                           
   513                           ; 2 bytes @ 0x4
   514  000505                     	ds	2
   515  000507                     ??_fputc:
   516                           
   517                           ; 1 bytes @ 0x6
   518  000507                     	ds	2
   519  000509                     ___aodiv@divisor:
   520                           	callstack 0
   521  000509                     ___aomod@divisor:
   522                           	callstack 0
   523                           
   524                           ; 8 bytes @ 0x8
   525  000509                     	ds	3
   526  00050C                     fputs@s:
   527                           	callstack 0
   528                           
   529                           ; 2 bytes @ 0xB
   530  00050C                     	ds	2
   531  00050E                     fputs@fp:
   532                           	callstack 0
   533                           
   534                           ; 2 bytes @ 0xD
   535  00050E                     	ds	2
   536  000510                     fputs@c:
   537                           	callstack 0
   538                           
   539                           ; 1 bytes @ 0xF
   540  000510                     	ds	1
   541  000511                     ___aodiv@counter:
   542                           	callstack 0
   543  000511                     ___aomod@counter:
   544                           	callstack 0
   545  000511                     fputs@i:
   546                           	callstack 0
   547                           
   548                           ; 2 bytes @ 0x10
   549  000511                     	ds	1
   550  000512                     ___aodiv@sign:
   551                           	callstack 0
   552  000512                     ___aomod@sign:
   553                           	callstack 0
   554                           
   555                           ; 1 bytes @ 0x11
   556  000512                     	ds	1
   557  000513                     ?_abs:
   558                           	callstack 0
   559  000513                     ?_pad:
   560                           	callstack 0
   561  000513                     pad@fp:
   562                           	callstack 0
   563  000513                     abs@a:
   564                           	callstack 0
   565  000513                     ___aodiv@quotient:
   566                           	callstack 0
   567                           
   568                           ; 8 bytes @ 0x12
   569  000513                     	ds	2
   570  000515                     ??_abs:
   571  000515                     pad@buf:
   572                           	callstack 0
   573                           
   574                           ; 2 bytes @ 0x14
   575  000515                     	ds	2
   576  000517                     pad@p:
   577                           	callstack 0
   578                           
   579                           ; 2 bytes @ 0x16
   580  000517                     	ds	2
   581  000519                     ??_pad:
   582                           
   583                           ; 1 bytes @ 0x18
   584  000519                     	ds	1
   585  00051A                     pad@i:
   586                           	callstack 0
   587                           
   588                           ; 2 bytes @ 0x19
   589  00051A                     	ds	2
   590  00051C                     pad@w:
   591                           	callstack 0
   592                           
   593                           ; 2 bytes @ 0x1B
   594  00051C                     	ds	2
   595  00051E                     ?_dtoa:
   596                           	callstack 0
   597  00051E                     dtoa@fp:
   598                           	callstack 0
   599                           
   600                           ; 2 bytes @ 0x1D
   601  00051E                     	ds	2
   602  000520                     dtoa@d:
   603                           	callstack 0
   604                           
   605                           ; 8 bytes @ 0x1F
   606  000520                     	ds	8
   607  000528                     ??_dtoa:
   608                           
   609                           ; 1 bytes @ 0x27
   610  000528                     	ds	8
   611  000530                     _dtoa$1836:
   612                           	callstack 0
   613                           
   614                           ; 2 bytes @ 0x2F
   615  000530                     	ds	2
   616  000532                     dtoa@p:
   617                           	callstack 0
   618                           
   619                           ; 2 bytes @ 0x31
   620  000532                     	ds	2
   621  000534                     dtoa@w:
   622                           	callstack 0
   623                           
   624                           ; 2 bytes @ 0x33
   625  000534                     	ds	2
   626  000536                     dtoa@s:
   627                           	callstack 0
   628                           
   629                           ; 2 bytes @ 0x35
   630  000536                     	ds	2
   631  000538                     dtoa@n:
   632                           	callstack 0
   633                           
   634                           ; 8 bytes @ 0x37
   635  000538                     	ds	8
   636  000540                     dtoa@i:
   637                           	callstack 0
   638                           
   639                           ; 2 bytes @ 0x3F
   640  000540                     	ds	2
   641  000542                     ?_vfpfcnvrt:
   642                           	callstack 0
   643  000542                     vfpfcnvrt@fp:
   644                           	callstack 0
   645                           
   646                           ; 2 bytes @ 0x41
   647  000542                     	ds	2
   648  000544                     vfpfcnvrt@fmt:
   649                           	callstack 0
   650                           
   651                           ; 2 bytes @ 0x43
   652  000544                     	ds	2
   653  000546                     vfpfcnvrt@ap:
   654                           	callstack 0
   655                           
   656                           ; 2 bytes @ 0x45
   657  000546                     	ds	2
   658  000548                     ??_vfpfcnvrt:
   659                           
   660                           ; 1 bytes @ 0x47
   661  000548                     	ds	2
   662  00054A                     vfpfcnvrt@ll:
   663                           	callstack 0
   664                           
   665                           ; 8 bytes @ 0x49
   666  00054A                     	ds	8
   667  000552                     ?_vfprintf:
   668                           	callstack 0
   669  000552                     vfprintf@fp:
   670                           	callstack 0
   671                           
   672                           ; 2 bytes @ 0x51
   673  000552                     	ds	2
   674  000554                     vfprintf@fmt:
   675                           	callstack 0
   676                           
   677                           ; 2 bytes @ 0x53
   678  000554                     	ds	2
   679  000556                     vfprintf@ap:
   680                           	callstack 0
   681                           
   682                           ; 2 bytes @ 0x55
   683  000556                     	ds	2
   684  000558                     vfprintf@cfmt:
   685                           	callstack 0
   686                           
   687                           ; 2 bytes @ 0x57
   688  000558                     	ds	2
   689  00055A                     ?_printf:
   690                           	callstack 0
   691  00055A                     printf@fmt:
   692                           	callstack 0
   693                           
   694                           ; 2 bytes @ 0x59
   695  00055A                     	ds	4
   696  00055E                     printf@ap:
   697                           	callstack 0
   698                           
   699                           ; 2 bytes @ 0x5D
   700  00055E                     	ds	2
   701  000560                     
   702                           ; 1 bytes @ 0x5F
   703 ;;
   704 ;;Main: autosize = 0, tempsize = 0, incstack = 0, save=0
   705 ;;
   706 ;; *************** function _main *****************
   707 ;; Defined at:
   708 ;;		line 116 in file "main.c"
   709 ;; Parameters:    Size  Location     Type
   710 ;;		None
   711 ;; Auto vars:     Size  Location     Type
   712 ;;		None
   713 ;; Return value:  Size  Location     Type
   714 ;;                  1    wreg      void 
   715 ;; Registers used:
   716 ;;		wreg, status,2, status,0, cstack
   717 ;; Tracked objects:
   718 ;;		On entry : 0/0
   719 ;;		On exit  : 0/0
   720 ;;		Unchanged: 0/0
   721 ;; Data sizes:     COMRAM   BANK5   BANK6   BANK7   BANK8   BANK9  BANK10  BANK11  BANK12  BANK13  BANK14  BANK15  BANK1
      +6  BANK17  BANK18  BANK19  BANK20  BANK21  BANK22  BANK23  BANK24  BANK25  BANK26  BANK27  BANK28  BANK29  BANK30  BANK3
      +1  BANK32  BANK33  BANK34  BANK35  BANK36  BANK37  BANK38  BANK39  BANK40  BANK41  BANK42  BANK43  BANK44  BANK45  BANK4
      +6  BANK47  BANK48  BANK49  BANK50  BANK51  BANK52  BANK53  BANK54  BANK55
   722 ;;      Params:         0       0       0       0       0       0       0       0       0       0       0       0       
      +0       0       0       0       0       0       0       0       0       0       0       0       0       0       0       
      +0       0       0       0       0       0       0       0       0       0       0       0       0       0       0       
      +0       0       0       0       0       0       0       0       0       0
   723 ;;      Locals:         0       0       0       0       0       0       0       0       0       0       0       0       
      +0       0       0       0       0       0       0       0       0       0       0       0       0       0       0       
      +0       0       0       0       0       0       0       0       0       0       0       0       0       0       0       
      +0       0       0       0       0       0       0       0       0       0
   724 ;;      Temps:          0       0       0       0       0       0       0       0       0       0       0       0       
      +0       0       0       0       0       0       0       0       0       0       0       0       0       0       0       
      +0       0       0       0       0       0       0       0       0       0       0       0       0       0       0       
      +0       0       0       0       0       0       0       0       0       0
   725 ;;      Totals:         0       0       0       0       0       0       0       0       0       0       0       0       
      +0       0       0       0       0       0       0       0       0       0       0       0       0       0       0       
      +0       0       0       0       0       0       0       0       0       0       0       0       0       0       0       
      +0       0       0       0       0       0       0       0       0       0
   726 ;;Total ram usage:        0 bytes
   727 ;; Hardware stack levels required when called: 15
   728 ;; This function calls:
   729 ;;		_ADC_DisableChannelSequencer
   730 ;;		_ADC_EnableChannelSequencer
   731 ;;		_ADC_SelectContext
   732 ;;		_ADC_SetContext4ThresholdInterruptHandler
   733 ;;		_SYSTEM_Initialize
   734 ;;		_TMR0_StartTimer
   735 ;; This function is called by:
   736 ;;		Startup code after reset
   737 ;; This function uses a non-reentrant model
   738 ;;
   739                           
   740                           	psect	text0
   741  0047C8                     __ptext0:
   742                           	callstack 0
   743  0047C8                     _main:
   744                           	callstack 113
   745  0047C8                     
   746                           ;main.c: 118:     static adc_result_t convertedValue1, convertedValue2, convertedValue3,
      +                           convertedValue4;;main.c: 119:     static adc_result_t convertedValue;;main.c: 121:     
      +                          SYSTEM_Initialize();
   747  0047C8  EC47  F024         	call	_SYSTEM_Initialize	;wreg free
   748                           
   749                           ;main.c: 124:     ADC_SetContext4ThresholdInterruptHandler(ADC_UserContext4Threshold_ISR
      +                          );
   750  0047CC  0E56               	movlw	low _ADC_UserContext4Threshold_ISR
   751  0047CE  0105               	movlb	5	; () banked
   752  0047D0  6FBB               	movwf	ADC_SetContext4ThresholdInterruptHandler@InterruptHandler& (0+255),b
   753  0047D2  0E42               	movlw	high _ADC_UserContext4Threshold_ISR
   754  0047D4  6FBC               	movwf	(ADC_SetContext4ThresholdInterruptHandler@InterruptHandler+1)& (0+255),b
   755  0047D6  0E00               	movlw	low (_ADC_UserContext4Threshold_ISR shr (0+16))
   756  0047D8  6FBD               	movwf	(ADC_SetContext4ThresholdInterruptHandler@InterruptHandler+2)& (0+255),b
   757  0047DA  EC8D  F024         	call	_ADC_SetContext4ThresholdInterruptHandler	;wreg free
   758  0047DE                     
   759                           ;main.c: 126:     ADC_DisableChannelSequencer();
   760  0047DE  ECCD  F024         	call	_ADC_DisableChannelSequencer	;wreg free
   761  0047E2                     
   762                           ;main.c: 127:     ADC_SelectContext(CONTEXT_1);
   763  0047E2  0E00               	movlw	0
   764  0047E4  ECB7  F024         	call	_ADC_SelectContext
   765  0047E8                     
   766                           ;main.c: 128:     ADC_EnableChannelSequencer();
   767  0047E8  ECCA  F024         	call	_ADC_EnableChannelSequencer	;wreg free
   768  0047EC                     
   769                           ;main.c: 130:     TMR0_StartTimer();
   770  0047EC  ECC7  F024         	call	_TMR0_StartTimer	;wreg free
   771  0047F0                     
   772                           ;main.c: 137:     (INTCON0bits.GIE = 1);
   773  0047F0  8ED6               	bsf	214,7,c	;volatile
   774  0047F2                     l699:
   775  0047F2  EFF9  F023         	goto	l699
   776  0047F6  EF0D  F000         	goto	start
   777  0047FA                     __end_of_main:
   778                           	callstack 0
   779                           
   780 ;; *************** function _TMR0_StartTimer *****************
   781 ;; Defined at:
   782 ;;		line 80 in file "mcc_generated_files/tmr0.c"
   783 ;; Parameters:    Size  Location     Type
   784 ;;		None
   785 ;; Auto vars:     Size  Location     Type
   786 ;;		None
   787 ;; Return value:  Size  Location     Type
   788 ;;                  1    wreg      void 
   789 ;; Registers used:
   790 ;;		None
   791 ;; Tracked objects:
   792 ;;		On entry : 0/0
   793 ;;		On exit  : 0/0
   794 ;;		Unchanged: 0/0
   795 ;; Data sizes:     COMRAM   BANK5   BANK6   BANK7   BANK8   BANK9  BANK10  BANK11  BANK12  BANK13  BANK14  BANK15  BANK1
      +6  BANK17  BANK18  BANK19  BANK20  BANK21  BANK22  BANK23  BANK24  BANK25  BANK26  BANK27  BANK28  BANK29  BANK30  BANK3
      +1  BANK32  BANK33  BANK34  BANK35  BANK36  BANK37  BANK38  BANK39  BANK40  BANK41  BANK42  BANK43  BANK44  BANK45  BANK4
      +6  BANK47  BANK48  BANK49  BANK50  BANK51  BANK52  BANK53  BANK54  BANK55
   796 ;;      Params:         0       0       0       0       0       0       0       0       0       0       0       0       
      +0       0       0       0       0       0       0       0       0       0       0       0       0       0       0       
      +0       0       0       0       0       0       0       0       0       0       0       0       0       0       0       
      +0       0       0       0       0       0       0       0       0       0
   797 ;;      Locals:         0       0       0       0       0       0       0       0       0       0       0       0       
      +0       0       0       0       0       0       0       0       0       0       0       0       0       0       0       
      +0       0       0       0       0       0       0       0       0       0       0       0       0       0       0       
      +0       0       0       0       0       0       0       0       0       0
   798 ;;      Temps:          0       0       0       0       0       0       0       0       0       0       0       0       
      +0       0       0       0       0       0       0       0       0       0       0       0       0       0       0       
      +0       0       0       0       0       0       0       0       0       0       0       0       0       0       0       
      +0       0       0       0       0       0       0       0       0       0
   799 ;;      Totals:         0       0       0       0       0       0       0       0       0       0       0       0       
      +0       0       0       0       0       0       0       0       0       0       0       0       0       0       0       
      +0       0       0       0       0       0       0       0       0       0       0       0       0       0       0       
      +0       0       0       0       0       0       0       0       0       0
   800 ;;Total ram usage:        0 bytes
   801 ;; Hardware stack levels used: 1
   802 ;; Hardware stack levels required when called: 12
   803 ;; This function calls:
   804 ;;		Nothing
   805 ;; This function is called by:
   806 ;;		_main
   807 ;; This function uses a non-reentrant model
   808 ;;
   809                           
   810                           	psect	text1
   811  00498E                     __ptext1:
   812                           	callstack 0
   813  00498E                     _TMR0_StartTimer:
   814                           	callstack 115
   815  00498E                     
   816                           ;mcc_generated_files/tmr0.c: 83:     T0CON0bits.T0EN = 1;
   817  00498E  0103               	movlb	3	; () banked
   818  004990  8F1A               	bsf	26,7,b	;volatile
   819  004992                     
   820                           ; BSR set to: 3
   821  004992  0012               	return		;funcret
   822  004994                     __end_of_TMR0_StartTimer:
   823                           	callstack 0
   824                           
   825 ;; *************** function _SYSTEM_Initialize *****************
   826 ;; Defined at:
   827 ;;		line 50 in file "mcc_generated_files/mcc.c"
   828 ;; Parameters:    Size  Location     Type
   829 ;;		None
   830 ;; Auto vars:     Size  Location     Type
   831 ;;		None
   832 ;; Return value:  Size  Location     Type
   833 ;;                  1    wreg      void 
   834 ;; Registers used:
   835 ;;		wreg, status,2, status,0, cstack
   836 ;; Tracked objects:
   837 ;;		On entry : 0/0
   838 ;;		On exit  : 0/0
   839 ;;		Unchanged: 0/0
   840 ;; Data sizes:     COMRAM   BANK5   BANK6   BANK7   BANK8   BANK9  BANK10  BANK11  BANK12  BANK13  BANK14  BANK15  BANK1
      +6  BANK17  BANK18  BANK19  BANK20  BANK21  BANK22  BANK23  BANK24  BANK25  BANK26  BANK27  BANK28  BANK29  BANK30  BANK3
      +1  BANK32  BANK33  BANK34  BANK35  BANK36  BANK37  BANK38  BANK39  BANK40  BANK41  BANK42  BANK43  BANK44  BANK45  BANK4
      +6  BANK47  BANK48  BANK49  BANK50  BANK51  BANK52  BANK53  BANK54  BANK55
   841 ;;      Params:         0       0       0       0       0       0       0       0       0       0       0       0       
      +0       0       0       0       0       0       0       0       0       0       0       0       0       0       0       
      +0       0       0       0       0       0       0       0       0       0       0       0       0       0       0       
      +0       0       0       0       0       0       0       0       0       0
   842 ;;      Locals:         0       0       0       0       0       0       0       0       0       0       0       0       
      +0       0       0       0       0       0       0       0       0       0       0       0       0       0       0       
      +0       0       0       0       0       0       0       0       0       0       0       0       0       0       0       
      +0       0       0       0       0       0       0       0       0       0
   843 ;;      Temps:          0       0       0       0       0       0       0       0       0       0       0       0       
      +0       0       0       0       0       0       0       0       0       0       0       0       0       0       0       
      +0       0       0       0       0       0       0       0       0       0       0       0       0       0       0       
      +0       0       0       0       0       0       0       0       0       0
   844 ;;      Totals:         0       0       0       0       0       0       0       0       0       0       0       0       
      +0       0       0       0       0       0       0       0       0       0       0       0       0       0       0       
      +0       0       0       0       0       0       0       0       0       0       0       0       0       0       0       
      +0       0       0       0       0       0       0       0       0       0
   845 ;;Total ram usage:        0 bytes
   846 ;; Hardware stack levels used: 1
   847 ;; Hardware stack levels required when called: 14
   848 ;; This function calls:
   849 ;;		_ADC_Initialize
   850 ;;		_INTERRUPT_Initialize
   851 ;;		_OSCILLATOR_Initialize
   852 ;;		_PIN_MANAGER_Initialize
   853 ;;		_PMD_Initialize
   854 ;;		_TMR0_Initialize
   855 ;;		_UART1_Initialize
   856 ;; This function is called by:
   857 ;;		_main
   858 ;; This function uses a non-reentrant model
   859 ;;
   860                           
   861                           	psect	text2
   862  00488E                     __ptext2:
   863                           	callstack 0
   864  00488E                     _SYSTEM_Initialize:
   865                           	callstack 113
   866  00488E                     
   867                           ;mcc_generated_files/mcc.c: 52:     INTERRUPT_Initialize();
   868  00488E  ECD6  F024         	call	_INTERRUPT_Initialize	;wreg free
   869  004892                     
   870                           ;mcc_generated_files/mcc.c: 53:     PMD_Initialize();
   871  004892  ECFD  F023         	call	_PMD_Initialize	;wreg free
   872  004896                     
   873                           ;mcc_generated_files/mcc.c: 54:     PIN_MANAGER_Initialize();
   874  004896  EC38  F022         	call	_PIN_MANAGER_Initialize	;wreg free
   875  00489A                     
   876                           ;mcc_generated_files/mcc.c: 55:     ADC_Initialize();
   877  00489A  EC95  F01D         	call	_ADC_Initialize	;wreg free
   878  00489E                     
   879                           ;mcc_generated_files/mcc.c: 56:     OSCILLATOR_Initialize();
   880  00489E  EC11  F024         	call	_OSCILLATOR_Initialize	;wreg free
   881  0048A2                     
   882                           ;mcc_generated_files/mcc.c: 57:     TMR0_Initialize();
   883  0048A2  EC62  F024         	call	_TMR0_Initialize	;wreg free
   884  0048A6                     
   885                           ;mcc_generated_files/mcc.c: 58:     UART1_Initialize();
   886  0048A6  ECCF  F022         	call	_UART1_Initialize	;wreg free
   887  0048AA  0012               	return		;funcret
   888  0048AC                     __end_of_SYSTEM_Initialize:
   889                           	callstack 0
   890                           
   891 ;; *************** function _UART1_Initialize *****************
   892 ;; Defined at:
   893 ;;		line 66 in file "mcc_generated_files/uart1.c"
   894 ;; Parameters:    Size  Location     Type
   895 ;;		None
   896 ;; Auto vars:     Size  Location     Type
   897 ;;		None
   898 ;; Return value:  Size  Location     Type
   899 ;;                  1    wreg      void 
   900 ;; Registers used:
   901 ;;		wreg, status,2, status,0, cstack
   902 ;; Tracked objects:
   903 ;;		On entry : 0/0
   904 ;;		On exit  : 0/0
   905 ;;		Unchanged: 0/0
   906 ;; Data sizes:     COMRAM   BANK5   BANK6   BANK7   BANK8   BANK9  BANK10  BANK11  BANK12  BANK13  BANK14  BANK15  BANK1
      +6  BANK17  BANK18  BANK19  BANK20  BANK21  BANK22  BANK23  BANK24  BANK25  BANK26  BANK27  BANK28  BANK29  BANK30  BANK3
      +1  BANK32  BANK33  BANK34  BANK35  BANK36  BANK37  BANK38  BANK39  BANK40  BANK41  BANK42  BANK43  BANK44  BANK45  BANK4
      +6  BANK47  BANK48  BANK49  BANK50  BANK51  BANK52  BANK53  BANK54  BANK55
   907 ;;      Params:         0       0       0       0       0       0       0       0       0       0       0       0       
      +0       0       0       0       0       0       0       0       0       0       0       0       0       0       0       
      +0       0       0       0       0       0       0       0       0       0       0       0       0       0       0       
      +0       0       0       0       0       0       0       0       0       0
   908 ;;      Locals:         0       0       0       0       0       0       0       0       0       0       0       0       
      +0       0       0       0       0       0       0       0       0       0       0       0       0       0       0       
      +0       0       0       0       0       0       0       0       0       0       0       0       0       0       0       
      +0       0       0       0       0       0       0       0       0       0
   909 ;;      Temps:          0       0       0       0       0       0       0       0       0       0       0       0       
      +0       0       0       0       0       0       0       0       0       0       0       0       0       0       0       
      +0       0       0       0       0       0       0       0       0       0       0       0       0       0       0       
      +0       0       0       0       0       0       0       0       0       0
   910 ;;      Totals:         0       0       0       0       0       0       0       0       0       0       0       0       
      +0       0       0       0       0       0       0       0       0       0       0       0       0       0       0       
      +0       0       0       0       0       0       0       0       0       0       0       0       0       0       0       
      +0       0       0       0       0       0       0       0       0       0
   911 ;;Total ram usage:        0 bytes
   912 ;; Hardware stack levels used: 1
   913 ;; Hardware stack levels required when called: 13
   914 ;; This function calls:
   915 ;;		_UART1_SetErrorHandler
   916 ;;		_UART1_SetFramingErrorHandler
   917 ;;		_UART1_SetOverrunErrorHandler
   918 ;; This function is called by:
   919 ;;		_SYSTEM_Initialize
   920 ;; This function uses a non-reentrant model
   921 ;;
   922                           
   923                           	psect	text3
   924  00459E                     __ptext3:
   925                           	callstack 0
   926  00459E                     _UART1_Initialize:
   927                           	callstack 113
   928  00459E                     
   929                           ;mcc_generated_files/uart1.c: 73:     U1P1L = 0x00;
   930  00459E  0E00               	movlw	0
   931  0045A0  0102               	movlb	2	; () banked
   932  0045A2  6FA5               	movwf	165,b	;volatile
   933                           
   934                           ;mcc_generated_files/uart1.c: 76:     U1P1H = 0x00;
   935  0045A4  0E00               	movlw	0
   936  0045A6  6FA6               	movwf	166,b	;volatile
   937                           
   938                           ;mcc_generated_files/uart1.c: 79:     U1P2L = 0x00;
   939  0045A8  0E00               	movlw	0
   940  0045AA  6FA7               	movwf	167,b	;volatile
   941                           
   942                           ;mcc_generated_files/uart1.c: 82:     U1P2H = 0x00;
   943  0045AC  0E00               	movlw	0
   944  0045AE  6FA8               	movwf	168,b	;volatile
   945                           
   946                           ;mcc_generated_files/uart1.c: 85:     U1P3L = 0x00;
   947  0045B0  0E00               	movlw	0
   948  0045B2  6FA9               	movwf	169,b	;volatile
   949                           
   950                           ;mcc_generated_files/uart1.c: 88:     U1P3H = 0x00;
   951  0045B4  0E00               	movlw	0
   952  0045B6  6FAA               	movwf	170,b	;volatile
   953                           
   954                           ;mcc_generated_files/uart1.c: 91:     U1CON0 = 0xB0;
   955  0045B8  0EB0               	movlw	176
   956  0045BA  6FAB               	movwf	171,b	;volatile
   957                           
   958                           ;mcc_generated_files/uart1.c: 94:     U1CON1 = 0x80;
   959  0045BC  0E80               	movlw	128
   960  0045BE  6FAC               	movwf	172,b	;volatile
   961                           
   962                           ;mcc_generated_files/uart1.c: 97:     U1CON2 = 0x00;
   963  0045C0  0E00               	movlw	0
   964  0045C2  6FAD               	movwf	173,b	;volatile
   965                           
   966                           ;mcc_generated_files/uart1.c: 100:     U1BRGL = 0x11;
   967  0045C4  0E11               	movlw	17
   968  0045C6  6FAE               	movwf	174,b	;volatile
   969                           
   970                           ;mcc_generated_files/uart1.c: 103:     U1BRGH = 0x04;
   971  0045C8  0E04               	movlw	4
   972  0045CA  6FAF               	movwf	175,b	;volatile
   973                           
   974                           ;mcc_generated_files/uart1.c: 106:     U1FIFO = 0x00;
   975  0045CC  0E00               	movlw	0
   976  0045CE  6FB0               	movwf	176,b	;volatile
   977                           
   978                           ;mcc_generated_files/uart1.c: 109:     U1UIR = 0x00;
   979  0045D0  0E00               	movlw	0
   980  0045D2  6FB1               	movwf	177,b	;volatile
   981                           
   982                           ;mcc_generated_files/uart1.c: 112:     U1ERRIR = 0x00;
   983  0045D4  0E00               	movlw	0
   984  0045D6  6FB2               	movwf	178,b	;volatile
   985                           
   986                           ;mcc_generated_files/uart1.c: 115:     U1ERRIE = 0x00;
   987  0045D8  0E00               	movlw	0
   988  0045DA  6FB3               	movwf	179,b	;volatile
   989  0045DC                     
   990                           ; BSR set to: 2
   991                           ;mcc_generated_files/uart1.c: 118:     UART1_SetFramingErrorHandler(UART1_DefaultFraming
      +                          ErrorHandler);
   992  0045DC  0E00               	movlw	0
   993  0045DE  0105               	movlb	5	; () banked
   994  0045E0  6FBB               	movwf	UART1_SetFramingErrorHandler@interruptHandler& (0+255),b
   995  0045E2  0E00               	movlw	0
   996  0045E4  6FBC               	movwf	(UART1_SetFramingErrorHandler@interruptHandler+1)& (0+255),b
   997  0045E6  0E00               	movlw	0
   998  0045E8  6FBD               	movwf	(UART1_SetFramingErrorHandler@interruptHandler+2)& (0+255),b
   999  0045EA  EC7F  F024         	call	_UART1_SetFramingErrorHandler	;wreg free
  1000  0045EE                     
  1001                           ;mcc_generated_files/uart1.c: 119:     UART1_SetOverrunErrorHandler(UART1_DefaultOverrun
      +                          ErrorHandler);
  1002  0045EE  0E00               	movlw	0
  1003  0045F0  0105               	movlb	5	; () banked
  1004  0045F2  6FBB               	movwf	UART1_SetOverrunErrorHandler@interruptHandler& (0+255),b
  1005  0045F4  0E00               	movlw	0
  1006  0045F6  6FBC               	movwf	(UART1_SetOverrunErrorHandler@interruptHandler+1)& (0+255),b
  1007  0045F8  0E00               	movlw	0
  1008  0045FA  6FBD               	movwf	(UART1_SetOverrunErrorHandler@interruptHandler+2)& (0+255),b
  1009  0045FC  EC78  F024         	call	_UART1_SetOverrunErrorHandler	;wreg free
  1010  004600                     
  1011                           ;mcc_generated_files/uart1.c: 120:     UART1_SetErrorHandler(UART1_DefaultErrorHandler);
  1012  004600  0E00               	movlw	0
  1013  004602  0105               	movlb	5	; () banked
  1014  004604  6FBB               	movwf	UART1_SetErrorHandler@interruptHandler& (0+255),b
  1015  004606  0E00               	movlw	0
  1016  004608  6FBC               	movwf	(UART1_SetErrorHandler@interruptHandler+1)& (0+255),b
  1017  00460A  0E00               	movlw	0
  1018  00460C  6FBD               	movwf	(UART1_SetErrorHandler@interruptHandler+2)& (0+255),b
  1019  00460E  EC86  F024         	call	_UART1_SetErrorHandler	;wreg free
  1020  004612                     
  1021                           ;mcc_generated_files/uart1.c: 122:     uart1RxLastError.status = 0;
  1022  004612  0E00               	movlw	0
  1023  004614  0105               	movlb	5	; () banked
  1024  004616  6F83               	movwf	_uart1RxLastError& (0+255),b	;volatile
  1025  004618                     
  1026                           ; BSR set to: 5
  1027  004618  0012               	return		;funcret
  1028  00461A                     __end_of_UART1_Initialize:
  1029                           	callstack 0
  1030                           
  1031 ;; *************** function _UART1_SetOverrunErrorHandler *****************
  1032 ;; Defined at:
  1033 ;;		line 204 in file "mcc_generated_files/uart1.c"
  1034 ;; Parameters:    Size  Location     Type
  1035 ;;  interruptHan    3    5[BANK5 ] PTR FTN()void 
  1036 ;;		 -> UART1_DefaultOverrunErrorHandler(1), 
  1037 ;; Auto vars:     Size  Location     Type
  1038 ;;		None
  1039 ;; Return value:  Size  Location     Type
  1040 ;;                  1    wreg      void 
  1041 ;; Registers used:
  1042 ;;		wreg, status,2, status,0
  1043 ;; Tracked objects:
  1044 ;;		On entry : 0/0
  1045 ;;		On exit  : 0/0
  1046 ;;		Unchanged: 0/0
  1047 ;; Data sizes:     COMRAM   BANK5   BANK6   BANK7   BANK8   BANK9  BANK10  BANK11  BANK12  BANK13  BANK14  BANK15  BANK1
      +6  BANK17  BANK18  BANK19  BANK20  BANK21  BANK22  BANK23  BANK24  BANK25  BANK26  BANK27  BANK28  BANK29  BANK30  BANK3
      +1  BANK32  BANK33  BANK34  BANK35  BANK36  BANK37  BANK38  BANK39  BANK40  BANK41  BANK42  BANK43  BANK44  BANK45  BANK4
      +6  BANK47  BANK48  BANK49  BANK50  BANK51  BANK52  BANK53  BANK54  BANK55
  1048 ;;      Params:         0       3       0       0       0       0       0       0       0       0       0       0       
      +0       0       0       0       0       0       0       0       0       0       0       0       0       0       0       
      +0       0       0       0       0       0       0       0       0       0       0       0       0       0       0       
      +0       0       0       0       0       0       0       0       0       0
  1049 ;;      Locals:         0       0       0       0       0       0       0       0       0       0       0       0       
      +0       0       0       0       0       0       0       0       0       0       0       0       0       0       0       
      +0       0       0       0       0       0       0       0       0       0       0       0       0       0       0       
      +0       0       0       0       0       0       0       0       0       0
  1050 ;;      Temps:          0       0       0       0       0       0       0       0       0       0       0       0       
      +0       0       0       0       0       0       0       0       0       0       0       0       0       0       0       
      +0       0       0       0       0       0       0       0       0       0       0       0       0       0       0       
      +0       0       0       0       0       0       0       0       0       0
  1051 ;;      Totals:         0       3       0       0       0       0       0       0       0       0       0       0       
      +0       0       0       0       0       0       0       0       0       0       0       0       0       0       0       
      +0       0       0       0       0       0       0       0       0       0       0       0       0       0       0       
      +0       0       0       0       0       0       0       0       0       0
  1052 ;;Total ram usage:        3 bytes
  1053 ;; Hardware stack levels used: 1
  1054 ;; Hardware stack levels required when called: 12
  1055 ;; This function calls:
  1056 ;;		Nothing
  1057 ;; This function is called by:
  1058 ;;		_UART1_Initialize
  1059 ;; This function uses a non-reentrant model
  1060 ;;
  1061                           
  1062                           	psect	text4
  1063  0048F0                     __ptext4:
  1064                           	callstack 0
  1065  0048F0                     _UART1_SetOverrunErrorHandler:
  1066                           	callstack 113
  1067  0048F0                     
  1068                           ;mcc_generated_files/uart1.c: 205:     UART1_OverrunErrorHandler = interruptHandler;
  1069  0048F0  C5BB  F563         	movff	UART1_SetOverrunErrorHandler@interruptHandler,_UART1_OverrunErrorHandler
  1070  0048F4  C5BC  F564         	movff	UART1_SetOverrunErrorHandler@interruptHandler+1,_UART1_OverrunErrorHandler+1
  1071  0048F8  C5BD  F565         	movff	UART1_SetOverrunErrorHandler@interruptHandler+2,_UART1_OverrunErrorHandler+2
  1072  0048FC  0012               	return		;funcret
  1073  0048FE                     __end_of_UART1_SetOverrunErrorHandler:
  1074                           	callstack 0
  1075                           
  1076 ;; *************** function _UART1_SetFramingErrorHandler *****************
  1077 ;; Defined at:
  1078 ;;		line 200 in file "mcc_generated_files/uart1.c"
  1079 ;; Parameters:    Size  Location     Type
  1080 ;;  interruptHan    3    5[BANK5 ] PTR FTN()void 
  1081 ;;		 -> UART1_DefaultFramingErrorHandler(1), 
  1082 ;; Auto vars:     Size  Location     Type
  1083 ;;		None
  1084 ;; Return value:  Size  Location     Type
  1085 ;;                  1    wreg      void 
  1086 ;; Registers used:
  1087 ;;		wreg, status,2, status,0
  1088 ;; Tracked objects:
  1089 ;;		On entry : 0/0
  1090 ;;		On exit  : 0/0
  1091 ;;		Unchanged: 0/0
  1092 ;; Data sizes:     COMRAM   BANK5   BANK6   BANK7   BANK8   BANK9  BANK10  BANK11  BANK12  BANK13  BANK14  BANK15  BANK1
      +6  BANK17  BANK18  BANK19  BANK20  BANK21  BANK22  BANK23  BANK24  BANK25  BANK26  BANK27  BANK28  BANK29  BANK30  BANK3
      +1  BANK32  BANK33  BANK34  BANK35  BANK36  BANK37  BANK38  BANK39  BANK40  BANK41  BANK42  BANK43  BANK44  BANK45  BANK4
      +6  BANK47  BANK48  BANK49  BANK50  BANK51  BANK52  BANK53  BANK54  BANK55
  1093 ;;      Params:         0       3       0       0       0       0       0       0       0       0       0       0       
      +0       0       0       0       0       0       0       0       0       0       0       0       0       0       0       
      +0       0       0       0       0       0       0       0       0       0       0       0       0       0       0       
      +0       0       0       0       0       0       0       0       0       0
  1094 ;;      Locals:         0       0       0       0       0       0       0       0       0       0       0       0       
      +0       0       0       0       0       0       0       0       0       0       0       0       0       0       0       
      +0       0       0       0       0       0       0       0       0       0       0       0       0       0       0       
      +0       0       0       0       0       0       0       0       0       0
  1095 ;;      Temps:          0       0       0       0       0       0       0       0       0       0       0       0       
      +0       0       0       0       0       0       0       0       0       0       0       0       0       0       0       
      +0       0       0       0       0       0       0       0       0       0       0       0       0       0       0       
      +0       0       0       0       0       0       0       0       0       0
  1096 ;;      Totals:         0       3       0       0       0       0       0       0       0       0       0       0       
      +0       0       0       0       0       0       0       0       0       0       0       0       0       0       0       
      +0       0       0       0       0       0       0       0       0       0       0       0       0       0       0       
      +0       0       0       0       0       0       0       0       0       0
  1097 ;;Total ram usage:        3 bytes
  1098 ;; Hardware stack levels used: 1
  1099 ;; Hardware stack levels required when called: 12
  1100 ;; This function calls:
  1101 ;;		Nothing
  1102 ;; This function is called by:
  1103 ;;		_UART1_Initialize
  1104 ;; This function uses a non-reentrant model
  1105 ;;
  1106                           
  1107                           	psect	text5
  1108  0048FE                     __ptext5:
  1109                           	callstack 0
  1110  0048FE                     _UART1_SetFramingErrorHandler:
  1111                           	callstack 113
  1112  0048FE                     
  1113                           ;mcc_generated_files/uart1.c: 201:     UART1_FramingErrorHandler = interruptHandler;
  1114  0048FE  C5BB  F566         	movff	UART1_SetFramingErrorHandler@interruptHandler,_UART1_FramingErrorHandler
  1115  004902  C5BC  F567         	movff	UART1_SetFramingErrorHandler@interruptHandler+1,_UART1_FramingErrorHandler+1
  1116  004906  C5BD  F568         	movff	UART1_SetFramingErrorHandler@interruptHandler+2,_UART1_FramingErrorHandler+2
  1117  00490A  0012               	return		;funcret
  1118  00490C                     __end_of_UART1_SetFramingErrorHandler:
  1119                           	callstack 0
  1120                           
  1121 ;; *************** function _UART1_SetErrorHandler *****************
  1122 ;; Defined at:
  1123 ;;		line 208 in file "mcc_generated_files/uart1.c"
  1124 ;; Parameters:    Size  Location     Type
  1125 ;;  interruptHan    3    5[BANK5 ] PTR FTN()void 
  1126 ;;		 -> UART1_DefaultErrorHandler(1), 
  1127 ;; Auto vars:     Size  Location     Type
  1128 ;;		None
  1129 ;; Return value:  Size  Location     Type
  1130 ;;                  1    wreg      void 
  1131 ;; Registers used:
  1132 ;;		wreg, status,2, status,0
  1133 ;; Tracked objects:
  1134 ;;		On entry : 0/0
  1135 ;;		On exit  : 0/0
  1136 ;;		Unchanged: 0/0
  1137 ;; Data sizes:     COMRAM   BANK5   BANK6   BANK7   BANK8   BANK9  BANK10  BANK11  BANK12  BANK13  BANK14  BANK15  BANK1
      +6  BANK17  BANK18  BANK19  BANK20  BANK21  BANK22  BANK23  BANK24  BANK25  BANK26  BANK27  BANK28  BANK29  BANK30  BANK3
      +1  BANK32  BANK33  BANK34  BANK35  BANK36  BANK37  BANK38  BANK39  BANK40  BANK41  BANK42  BANK43  BANK44  BANK45  BANK4
      +6  BANK47  BANK48  BANK49  BANK50  BANK51  BANK52  BANK53  BANK54  BANK55
  1138 ;;      Params:         0       3       0       0       0       0       0       0       0       0       0       0       
      +0       0       0       0       0       0       0       0       0       0       0       0       0       0       0       
      +0       0       0       0       0       0       0       0       0       0       0       0       0       0       0       
      +0       0       0       0       0       0       0       0       0       0
  1139 ;;      Locals:         0       0       0       0       0       0       0       0       0       0       0       0       
      +0       0       0       0       0       0       0       0       0       0       0       0       0       0       0       
      +0       0       0       0       0       0       0       0       0       0       0       0       0       0       0       
      +0       0       0       0       0       0       0       0       0       0
  1140 ;;      Temps:          0       0       0       0       0       0       0       0       0       0       0       0       
      +0       0       0       0       0       0       0       0       0       0       0       0       0       0       0       
      +0       0       0       0       0       0       0       0       0       0       0       0       0       0       0       
      +0       0       0       0       0       0       0       0       0       0
  1141 ;;      Totals:         0       3       0       0       0       0       0       0       0       0       0       0       
      +0       0       0       0       0       0       0       0       0       0       0       0       0       0       0       
      +0       0       0       0       0       0       0       0       0       0       0       0       0       0       0       
      +0       0       0       0       0       0       0       0       0       0
  1142 ;;Total ram usage:        3 bytes
  1143 ;; Hardware stack levels used: 1
  1144 ;; Hardware stack levels required when called: 12
  1145 ;; This function calls:
  1146 ;;		Nothing
  1147 ;; This function is called by:
  1148 ;;		_UART1_Initialize
  1149 ;; This function uses a non-reentrant model
  1150 ;;
  1151                           
  1152                           	psect	text6
  1153  00490C                     __ptext6:
  1154                           	callstack 0
  1155  00490C                     _UART1_SetErrorHandler:
  1156                           	callstack 113
  1157  00490C                     
  1158                           ;mcc_generated_files/uart1.c: 209:     UART1_ErrorHandler = interruptHandler;
  1159  00490C  C5BB  F560         	movff	UART1_SetErrorHandler@interruptHandler,_UART1_ErrorHandler
  1160  004910  C5BC  F561         	movff	UART1_SetErrorHandler@interruptHandler+1,_UART1_ErrorHandler+1
  1161  004914  C5BD  F562         	movff	UART1_SetErrorHandler@interruptHandler+2,_UART1_ErrorHandler+2
  1162  004918  0012               	return		;funcret
  1163  00491A                     __end_of_UART1_SetErrorHandler:
  1164                           	callstack 0
  1165                           
  1166 ;; *************** function _TMR0_Initialize *****************
  1167 ;; Defined at:
  1168 ;;		line 60 in file "mcc_generated_files/tmr0.c"
  1169 ;; Parameters:    Size  Location     Type
  1170 ;;		None
  1171 ;; Auto vars:     Size  Location     Type
  1172 ;;		None
  1173 ;; Return value:  Size  Location     Type
  1174 ;;                  1    wreg      void 
  1175 ;; Registers used:
  1176 ;;		wreg, status,2
  1177 ;; Tracked objects:
  1178 ;;		On entry : 0/0
  1179 ;;		On exit  : 0/0
  1180 ;;		Unchanged: 0/0
  1181 ;; Data sizes:     COMRAM   BANK5   BANK6   BANK7   BANK8   BANK9  BANK10  BANK11  BANK12  BANK13  BANK14  BANK15  BANK1
      +6  BANK17  BANK18  BANK19  BANK20  BANK21  BANK22  BANK23  BANK24  BANK25  BANK26  BANK27  BANK28  BANK29  BANK30  BANK3
      +1  BANK32  BANK33  BANK34  BANK35  BANK36  BANK37  BANK38  BANK39  BANK40  BANK41  BANK42  BANK43  BANK44  BANK45  BANK4
      +6  BANK47  BANK48  BANK49  BANK50  BANK51  BANK52  BANK53  BANK54  BANK55
  1182 ;;      Params:         0       0       0       0       0       0       0       0       0       0       0       0       
      +0       0       0       0       0       0       0       0       0       0       0       0       0       0       0       
      +0       0       0       0       0       0       0       0       0       0       0       0       0       0       0       
      +0       0       0       0       0       0       0       0       0       0
  1183 ;;      Locals:         0       0       0       0       0       0       0       0       0       0       0       0       
      +0       0       0       0       0       0       0       0       0       0       0       0       0       0       0       
      +0       0       0       0       0       0       0       0       0       0       0       0       0       0       0       
      +0       0       0       0       0       0       0       0       0       0
  1184 ;;      Temps:          0       0       0       0       0       0       0       0       0       0       0       0       
      +0       0       0       0       0       0       0       0       0       0       0       0       0       0       0       
      +0       0       0       0       0       0       0       0       0       0       0       0       0       0       0       
      +0       0       0       0       0       0       0       0       0       0
  1185 ;;      Totals:         0       0       0       0       0       0       0       0       0       0       0       0       
      +0       0       0       0       0       0       0       0       0       0       0       0       0       0       0       
      +0       0       0       0       0       0       0       0       0       0       0       0       0       0       0       
      +0       0       0       0       0       0       0       0       0       0
  1186 ;;Total ram usage:        0 bytes
  1187 ;; Hardware stack levels used: 1
  1188 ;; Hardware stack levels required when called: 12
  1189 ;; This function calls:
  1190 ;;		Nothing
  1191 ;; This function is called by:
  1192 ;;		_SYSTEM_Initialize
  1193 ;; This function uses a non-reentrant model
  1194 ;;
  1195                           
  1196                           	psect	text7
  1197  0048C4                     __ptext7:
  1198                           	callstack 0
  1199  0048C4                     _TMR0_Initialize:
  1200                           	callstack 114
  1201  0048C4                     
  1202                           ;mcc_generated_files/tmr0.c: 65:     T0CON1 = 0x4C;
  1203  0048C4  0E4C               	movlw	76
  1204  0048C6  0103               	movlb	3	; () banked
  1205  0048C8  6F1B               	movwf	27,b	;volatile
  1206                           
  1207                           ;mcc_generated_files/tmr0.c: 68:     TMR0H = 0xF3;
  1208  0048CA  0EF3               	movlw	243
  1209  0048CC  6F19               	movwf	25,b	;volatile
  1210                           
  1211                           ;mcc_generated_files/tmr0.c: 71:     TMR0L = 0x00;
  1212  0048CE  0E00               	movlw	0
  1213  0048D0  6F18               	movwf	24,b	;volatile
  1214  0048D2                     
  1215                           ; BSR set to: 3
  1216                           ;mcc_generated_files/tmr0.c: 74:     PIR3bits.TMR0IF = 0;
  1217  0048D2  9EB1               	bcf	177,7,c	;volatile
  1218                           
  1219                           ;mcc_generated_files/tmr0.c: 77:     T0CON0 = 0x84;
  1220  0048D4  0E84               	movlw	132
  1221  0048D6  6F1A               	movwf	26,b	;volatile
  1222  0048D8                     
  1223                           ; BSR set to: 3
  1224  0048D8  0012               	return		;funcret
  1225  0048DA                     __end_of_TMR0_Initialize:
  1226                           	callstack 0
  1227                           
  1228 ;; *************** function _PMD_Initialize *****************
  1229 ;; Defined at:
  1230 ;;		line 79 in file "mcc_generated_files/mcc.c"
  1231 ;; Parameters:    Size  Location     Type
  1232 ;;		None
  1233 ;; Auto vars:     Size  Location     Type
  1234 ;;		None
  1235 ;; Return value:  Size  Location     Type
  1236 ;;                  1    wreg      void 
  1237 ;; Registers used:
  1238 ;;		wreg, status,2
  1239 ;; Tracked objects:
  1240 ;;		On entry : 0/0
  1241 ;;		On exit  : 0/0
  1242 ;;		Unchanged: 0/0
  1243 ;; Data sizes:     COMRAM   BANK5   BANK6   BANK7   BANK8   BANK9  BANK10  BANK11  BANK12  BANK13  BANK14  BANK15  BANK1
      +6  BANK17  BANK18  BANK19  BANK20  BANK21  BANK22  BANK23  BANK24  BANK25  BANK26  BANK27  BANK28  BANK29  BANK30  BANK3
      +1  BANK32  BANK33  BANK34  BANK35  BANK36  BANK37  BANK38  BANK39  BANK40  BANK41  BANK42  BANK43  BANK44  BANK45  BANK4
      +6  BANK47  BANK48  BANK49  BANK50  BANK51  BANK52  BANK53  BANK54  BANK55
  1244 ;;      Params:         0       0       0       0       0       0       0       0       0       0       0       0       
      +0       0       0       0       0       0       0       0       0       0       0       0       0       0       0       
      +0       0       0       0       0       0       0       0       0       0       0       0       0       0       0       
      +0       0       0       0       0       0       0       0       0       0
  1245 ;;      Locals:         0       0       0       0       0       0       0       0       0       0       0       0       
      +0       0       0       0       0       0       0       0       0       0       0       0       0       0       0       
      +0       0       0       0       0       0       0       0       0       0       0       0       0       0       0       
      +0       0       0       0       0       0       0       0       0       0
  1246 ;;      Temps:          0       0       0       0       0       0       0       0       0       0       0       0       
      +0       0       0       0       0       0       0       0       0       0       0       0       0       0       0       
      +0       0       0       0       0       0       0       0       0       0       0       0       0       0       0       
      +0       0       0       0       0       0       0       0       0       0
  1247 ;;      Totals:         0       0       0       0       0       0       0       0       0       0       0       0       
      +0       0       0       0       0       0       0       0       0       0       0       0       0       0       0       
      +0       0       0       0       0       0       0       0       0       0       0       0       0       0       0       
      +0       0       0       0       0       0       0       0       0       0
  1248 ;;Total ram usage:        0 bytes
  1249 ;; Hardware stack levels used: 1
  1250 ;; Hardware stack levels required when called: 12
  1251 ;; This function calls:
  1252 ;;		Nothing
  1253 ;; This function is called by:
  1254 ;;		_SYSTEM_Initialize
  1255 ;; This function uses a non-reentrant model
  1256 ;;
  1257                           
  1258                           	psect	text8
  1259  0047FA                     __ptext8:
  1260                           	callstack 0
  1261  0047FA                     _PMD_Initialize:
  1262                           	callstack 114
  1263  0047FA                     
  1264                           ;mcc_generated_files/mcc.c: 82:     PMD0 = 0x00;
  1265  0047FA  0E00               	movlw	0
  1266  0047FC  0100               	movlb	0	; () banked
  1267  0047FE  6F60               	movwf	96,b	;volatile
  1268                           
  1269                           ;mcc_generated_files/mcc.c: 84:     PMD1 = 0x00;
  1270  004800  0E00               	movlw	0
  1271  004802  6F61               	movwf	97,b	;volatile
  1272                           
  1273                           ;mcc_generated_files/mcc.c: 86:     PMD2 = 0x00;
  1274  004804  0E00               	movlw	0
  1275  004806  6F62               	movwf	98,b	;volatile
  1276                           
  1277                           ;mcc_generated_files/mcc.c: 88:     PMD3 = 0x00;
  1278  004808  0E00               	movlw	0
  1279  00480A  6F63               	movwf	99,b	;volatile
  1280                           
  1281                           ;mcc_generated_files/mcc.c: 90:     PMD4 = 0x00;
  1282  00480C  0E00               	movlw	0
  1283  00480E  6F64               	movwf	100,b	;volatile
  1284                           
  1285                           ;mcc_generated_files/mcc.c: 92:     PMD5 = 0x00;
  1286  004810  0E00               	movlw	0
  1287  004812  6F65               	movwf	101,b	;volatile
  1288                           
  1289                           ;mcc_generated_files/mcc.c: 94:     PMD6 = 0x00;
  1290  004814  0E00               	movlw	0
  1291  004816  6F66               	movwf	102,b	;volatile
  1292                           
  1293                           ;mcc_generated_files/mcc.c: 96:     PMD7 = 0x00;
  1294  004818  0E00               	movlw	0
  1295  00481A  6F67               	movwf	103,b	;volatile
  1296                           
  1297                           ;mcc_generated_files/mcc.c: 98:     PMD8 = 0x00;
  1298  00481C  0E00               	movlw	0
  1299  00481E  6F68               	movwf	104,b	;volatile
  1300  004820                     
  1301                           ; BSR set to: 0
  1302  004820  0012               	return		;funcret
  1303  004822                     __end_of_PMD_Initialize:
  1304                           	callstack 0
  1305                           
  1306 ;; *************** function _PIN_MANAGER_Initialize *****************
  1307 ;; Defined at:
  1308 ;;		line 55 in file "mcc_generated_files/pin_manager.c"
  1309 ;; Parameters:    Size  Location     Type
  1310 ;;		None
  1311 ;; Auto vars:     Size  Location     Type
  1312 ;;		None
  1313 ;; Return value:  Size  Location     Type
  1314 ;;                  1    wreg      void 
  1315 ;; Registers used:
  1316 ;;		wreg, status,2
  1317 ;; Tracked objects:
  1318 ;;		On entry : 0/0
  1319 ;;		On exit  : 0/0
  1320 ;;		Unchanged: 0/0
  1321 ;; Data sizes:     COMRAM   BANK5   BANK6   BANK7   BANK8   BANK9  BANK10  BANK11  BANK12  BANK13  BANK14  BANK15  BANK1
      +6  BANK17  BANK18  BANK19  BANK20  BANK21  BANK22  BANK23  BANK24  BANK25  BANK26  BANK27  BANK28  BANK29  BANK30  BANK3
      +1  BANK32  BANK33  BANK34  BANK35  BANK36  BANK37  BANK38  BANK39  BANK40  BANK41  BANK42  BANK43  BANK44  BANK45  BANK4
      +6  BANK47  BANK48  BANK49  BANK50  BANK51  BANK52  BANK53  BANK54  BANK55
  1322 ;;      Params:         0       0       0       0       0       0       0       0       0       0       0       0       
      +0       0       0       0       0       0       0       0       0       0       0       0       0       0       0       
      +0       0       0       0       0       0       0       0       0       0       0       0       0       0       0       
      +0       0       0       0       0       0       0       0       0       0
  1323 ;;      Locals:         0       0       0       0       0       0       0       0       0       0       0       0       
      +0       0       0       0       0       0       0       0       0       0       0       0       0       0       0       
      +0       0       0       0       0       0       0       0       0       0       0       0       0       0       0       
      +0       0       0       0       0       0       0       0       0       0
  1324 ;;      Temps:          0       0       0       0       0       0       0       0       0       0       0       0       
      +0       0       0       0       0       0       0       0       0       0       0       0       0       0       0       
      +0       0       0       0       0       0       0       0       0       0       0       0       0       0       0       
      +0       0       0       0       0       0       0       0       0       0
  1325 ;;      Totals:         0       0       0       0       0       0       0       0       0       0       0       0       
      +0       0       0       0       0       0       0       0       0       0       0       0       0       0       0       
      +0       0       0       0       0       0       0       0       0       0       0       0       0       0       0       
      +0       0       0       0       0       0       0       0       0       0
  1326 ;;Total ram usage:        0 bytes
  1327 ;; Hardware stack levels used: 1
  1328 ;; Hardware stack levels required when called: 12
  1329 ;; This function calls:
  1330 ;;		Nothing
  1331 ;; This function is called by:
  1332 ;;		_SYSTEM_Initialize
  1333 ;; This function uses a non-reentrant model
  1334 ;;
  1335                           
  1336                           	psect	text9
  1337  004470                     __ptext9:
  1338                           	callstack 0
  1339  004470                     _PIN_MANAGER_Initialize:
  1340                           	callstack 114
  1341  004470                     
  1342                           ;mcc_generated_files/pin_manager.c: 60:     LATE = 0x00;
  1343  004470  0E00               	movlw	0
  1344  004472  6EC2               	movwf	194,c	;volatile
  1345                           
  1346                           ;mcc_generated_files/pin_manager.c: 61:     LATD = 0x00;
  1347  004474  0E00               	movlw	0
  1348  004476  6EC1               	movwf	193,c	;volatile
  1349                           
  1350                           ;mcc_generated_files/pin_manager.c: 62:     LATA = 0x00;
  1351  004478  0E00               	movlw	0
  1352  00447A  6EBE               	movwf	190,c	;volatile
  1353                           
  1354                           ;mcc_generated_files/pin_manager.c: 63:     LATF = 0x00;
  1355  00447C  0E00               	movlw	0
  1356  00447E  6EC3               	movwf	195,c	;volatile
  1357                           
  1358                           ;mcc_generated_files/pin_manager.c: 64:     LATB = 0x00;
  1359  004480  0E00               	movlw	0
  1360  004482  6EBF               	movwf	191,c	;volatile
  1361                           
  1362                           ;mcc_generated_files/pin_manager.c: 65:     LATC = 0x00;
  1363  004484  0E00               	movlw	0
  1364  004486  6EC0               	movwf	192,c	;volatile
  1365                           
  1366                           ;mcc_generated_files/pin_manager.c: 70:     TRISE = 0x07;
  1367  004488  0E07               	movlw	7
  1368  00448A  6ECA               	movwf	202,c	;volatile
  1369                           
  1370                           ;mcc_generated_files/pin_manager.c: 71:     TRISF = 0xF6;
  1371  00448C  0EF6               	movlw	246
  1372  00448E  6ECB               	movwf	203,c	;volatile
  1373  004490                     
  1374                           ;mcc_generated_files/pin_manager.c: 72:     TRISA = 0xFF;
  1375  004490  68C6               	setf	198,c	;volatile
  1376  004492                     
  1377                           ;mcc_generated_files/pin_manager.c: 73:     TRISB = 0xFF;
  1378  004492  68C7               	setf	199,c	;volatile
  1379  004494                     
  1380                           ;mcc_generated_files/pin_manager.c: 74:     TRISC = 0xFF;
  1381  004494  68C8               	setf	200,c	;volatile
  1382  004496                     
  1383                           ;mcc_generated_files/pin_manager.c: 75:     TRISD = 0xFF;
  1384  004496  68C9               	setf	201,c	;volatile
  1385  004498                     
  1386                           ;mcc_generated_files/pin_manager.c: 80:     ANSELD = 0xFF;
  1387  004498  0104               	movlb	4	; () banked
  1388  00449A  6918               	setf	24,b	;volatile
  1389  00449C                     
  1390                           ; BSR set to: 4
  1391                           ;mcc_generated_files/pin_manager.c: 81:     ANSELC = 0xFF;
  1392  00449C  6910               	setf	16,b	;volatile
  1393                           
  1394                           ;mcc_generated_files/pin_manager.c: 82:     ANSELB = 0xEF;
  1395  00449E  0EEF               	movlw	239
  1396  0044A0  6F08               	movwf	8,b	;volatile
  1397                           
  1398                           ;mcc_generated_files/pin_manager.c: 83:     ANSELE = 0x07;
  1399  0044A2  0E07               	movlw	7
  1400  0044A4  6F20               	movwf	32,b	;volatile
  1401                           
  1402                           ;mcc_generated_files/pin_manager.c: 84:     ANSELF = 0xF4;
  1403  0044A6  0EF4               	movlw	244
  1404  0044A8  6F28               	movwf	40,b	;volatile
  1405  0044AA                     
  1406                           ; BSR set to: 4
  1407                           ;mcc_generated_files/pin_manager.c: 85:     ANSELA = 0xFF;
  1408  0044AA  6900               	setf	0,b	;volatile
  1409                           
  1410                           ;mcc_generated_files/pin_manager.c: 90:     WPUD = 0x00;
  1411  0044AC  0E00               	movlw	0
  1412  0044AE  6F19               	movwf	25,b	;volatile
  1413                           
  1414                           ;mcc_generated_files/pin_manager.c: 91:     WPUF = 0x00;
  1415  0044B0  0E00               	movlw	0
  1416  0044B2  6F29               	movwf	41,b	;volatile
  1417                           
  1418                           ;mcc_generated_files/pin_manager.c: 92:     WPUE = 0x00;
  1419  0044B4  0E00               	movlw	0
  1420  0044B6  6F21               	movwf	33,b	;volatile
  1421                           
  1422                           ;mcc_generated_files/pin_manager.c: 93:     WPUB = 0x00;
  1423  0044B8  0E00               	movlw	0
  1424  0044BA  6F09               	movwf	9,b	;volatile
  1425                           
  1426                           ;mcc_generated_files/pin_manager.c: 94:     WPUA = 0x00;
  1427  0044BC  0E00               	movlw	0
  1428  0044BE  6F01               	movwf	1,b	;volatile
  1429                           
  1430                           ;mcc_generated_files/pin_manager.c: 95:     WPUC = 0x00;
  1431  0044C0  0E00               	movlw	0
  1432  0044C2  6F11               	movwf	17,b	;volatile
  1433                           
  1434                           ;mcc_generated_files/pin_manager.c: 100:     ODCONE = 0x00;
  1435  0044C4  0E00               	movlw	0
  1436  0044C6  6F22               	movwf	34,b	;volatile
  1437                           
  1438                           ;mcc_generated_files/pin_manager.c: 101:     ODCONF = 0x00;
  1439  0044C8  0E00               	movlw	0
  1440  0044CA  6F2A               	movwf	42,b	;volatile
  1441                           
  1442                           ;mcc_generated_files/pin_manager.c: 102:     ODCONA = 0x00;
  1443  0044CC  0E00               	movlw	0
  1444  0044CE  6F02               	movwf	2,b	;volatile
  1445                           
  1446                           ;mcc_generated_files/pin_manager.c: 103:     ODCONB = 0x00;
  1447  0044D0  0E00               	movlw	0
  1448  0044D2  6F0A               	movwf	10,b	;volatile
  1449                           
  1450                           ;mcc_generated_files/pin_manager.c: 104:     ODCONC = 0x00;
  1451  0044D4  0E00               	movlw	0
  1452  0044D6  6F12               	movwf	18,b	;volatile
  1453                           
  1454                           ;mcc_generated_files/pin_manager.c: 105:     ODCOND = 0x00;
  1455  0044D8  0E00               	movlw	0
  1456  0044DA  6F1A               	movwf	26,b	;volatile
  1457  0044DC                     
  1458                           ; BSR set to: 4
  1459                           ;mcc_generated_files/pin_manager.c: 110:     SLRCONA = 0xFF;
  1460  0044DC  6903               	setf	3,b	;volatile
  1461  0044DE                     
  1462                           ; BSR set to: 4
  1463                           ;mcc_generated_files/pin_manager.c: 111:     SLRCONB = 0xFF;
  1464  0044DE  690B               	setf	11,b	;volatile
  1465  0044E0                     
  1466                           ; BSR set to: 4
  1467                           ;mcc_generated_files/pin_manager.c: 112:     SLRCONC = 0xFF;
  1468  0044E0  6913               	setf	19,b	;volatile
  1469  0044E2                     
  1470                           ; BSR set to: 4
  1471                           ;mcc_generated_files/pin_manager.c: 113:     SLRCOND = 0xFF;
  1472  0044E2  691B               	setf	27,b	;volatile
  1473                           
  1474                           ;mcc_generated_files/pin_manager.c: 114:     SLRCONE = 0x07;
  1475  0044E4  0E07               	movlw	7
  1476  0044E6  6F23               	movwf	35,b	;volatile
  1477  0044E8                     
  1478                           ; BSR set to: 4
  1479                           ;mcc_generated_files/pin_manager.c: 115:     SLRCONF = 0xFF;
  1480  0044E8  692B               	setf	43,b	;volatile
  1481  0044EA                     
  1482                           ; BSR set to: 4
  1483                           ;mcc_generated_files/pin_manager.c: 120:     INLVLA = 0xFF;
  1484  0044EA  6904               	setf	4,b	;volatile
  1485  0044EC                     
  1486                           ; BSR set to: 4
  1487                           ;mcc_generated_files/pin_manager.c: 121:     INLVLB = 0xFF;
  1488  0044EC  690C               	setf	12,b	;volatile
  1489  0044EE                     
  1490                           ; BSR set to: 4
  1491                           ;mcc_generated_files/pin_manager.c: 122:     INLVLC = 0xFF;
  1492  0044EE  6914               	setf	20,b	;volatile
  1493  0044F0                     
  1494                           ; BSR set to: 4
  1495                           ;mcc_generated_files/pin_manager.c: 123:     INLVLD = 0xFF;
  1496  0044F0  691C               	setf	28,b	;volatile
  1497                           
  1498                           ;mcc_generated_files/pin_manager.c: 124:     INLVLE = 0x0F;
  1499  0044F2  0E0F               	movlw	15
  1500  0044F4  6F24               	movwf	36,b	;volatile
  1501  0044F6                     
  1502                           ; BSR set to: 4
  1503                           ;mcc_generated_files/pin_manager.c: 125:     INLVLF = 0xFF;
  1504  0044F6  692C               	setf	44,b	;volatile
  1505                           
  1506                           ;mcc_generated_files/pin_manager.c: 134:     ADACTPPS = 0x0C;
  1507  0044F8  0E0C               	movlw	12
  1508  0044FA  0102               	movlb	2	; () banked
  1509  0044FC  6F69               	movwf	105,b	;volatile
  1510                           
  1511                           ;mcc_generated_files/pin_manager.c: 135:     RF0PPS = 0x20;
  1512  0044FE  0E20               	movlw	32
  1513  004500  6F29               	movwf	41,b	;volatile
  1514                           
  1515                           ;mcc_generated_files/pin_manager.c: 136:     U1RXPPS = 0x29;
  1516  004502  0E29               	movlw	41
  1517  004504  6F72               	movwf	114,b	;volatile
  1518  004506                     
  1519                           ; BSR set to: 2
  1520  004506  0012               	return		;funcret
  1521  004508                     __end_of_PIN_MANAGER_Initialize:
  1522                           	callstack 0
  1523                           
  1524 ;; *************** function _OSCILLATOR_Initialize *****************
  1525 ;; Defined at:
  1526 ;;		line 61 in file "mcc_generated_files/mcc.c"
  1527 ;; Parameters:    Size  Location     Type
  1528 ;;		None
  1529 ;; Auto vars:     Size  Location     Type
  1530 ;;		None
  1531 ;; Return value:  Size  Location     Type
  1532 ;;                  1    wreg      void 
  1533 ;; Registers used:
  1534 ;;		wreg, status,2
  1535 ;; Tracked objects:
  1536 ;;		On entry : 0/0
  1537 ;;		On exit  : 0/0
  1538 ;;		Unchanged: 0/0
  1539 ;; Data sizes:     COMRAM   BANK5   BANK6   BANK7   BANK8   BANK9  BANK10  BANK11  BANK12  BANK13  BANK14  BANK15  BANK1
      +6  BANK17  BANK18  BANK19  BANK20  BANK21  BANK22  BANK23  BANK24  BANK25  BANK26  BANK27  BANK28  BANK29  BANK30  BANK3
      +1  BANK32  BANK33  BANK34  BANK35  BANK36  BANK37  BANK38  BANK39  BANK40  BANK41  BANK42  BANK43  BANK44  BANK45  BANK4
      +6  BANK47  BANK48  BANK49  BANK50  BANK51  BANK52  BANK53  BANK54  BANK55
  1540 ;;      Params:         0       0       0       0       0       0       0       0       0       0       0       0       
      +0       0       0       0       0       0       0       0       0       0       0       0       0       0       0       
      +0       0       0       0       0       0       0       0       0       0       0       0       0       0       0       
      +0       0       0       0       0       0       0       0       0       0
  1541 ;;      Locals:         0       0       0       0       0       0       0       0       0       0       0       0       
      +0       0       0       0       0       0       0       0       0       0       0       0       0       0       0       
      +0       0       0       0       0       0       0       0       0       0       0       0       0       0       0       
      +0       0       0       0       0       0       0       0       0       0
  1542 ;;      Temps:          0       0       0       0       0       0       0       0       0       0       0       0       
      +0       0       0       0       0       0       0       0       0       0       0       0       0       0       0       
      +0       0       0       0       0       0       0       0       0       0       0       0       0       0       0       
      +0       0       0       0       0       0       0       0       0       0
  1543 ;;      Totals:         0       0       0       0       0       0       0       0       0       0       0       0       
      +0       0       0       0       0       0       0       0       0       0       0       0       0       0       0       
      +0       0       0       0       0       0       0       0       0       0       0       0       0       0       0       
      +0       0       0       0       0       0       0       0       0       0
  1544 ;;Total ram usage:        0 bytes
  1545 ;; Hardware stack levels used: 1
  1546 ;; Hardware stack levels required when called: 12
  1547 ;; This function calls:
  1548 ;;		Nothing
  1549 ;; This function is called by:
  1550 ;;		_SYSTEM_Initialize
  1551 ;; This function uses a non-reentrant model
  1552 ;;
  1553                           
  1554                           	psect	text10
  1555  004822                     __ptext10:
  1556                           	callstack 0
  1557  004822                     _OSCILLATOR_Initialize:
  1558                           	callstack 114
  1559  004822                     
  1560                           ;mcc_generated_files/mcc.c: 64:     OSCCON1 = 0x20;
  1561  004822  0E20               	movlw	32
  1562  004824  0100               	movlb	0	; () banked
  1563  004826  6FAD               	movwf	173,b	;volatile
  1564                           
  1565                           ;mcc_generated_files/mcc.c: 66:     OSCCON3 = 0x00;
  1566  004828  0E00               	movlw	0
  1567  00482A  6FAF               	movwf	175,b	;volatile
  1568                           
  1569                           ;mcc_generated_files/mcc.c: 68:     OSCEN = 0x00;
  1570  00482C  0E00               	movlw	0
  1571  00482E  6FB3               	movwf	179,b	;volatile
  1572                           
  1573                           ;mcc_generated_files/mcc.c: 70:     OSCFRQ = 0x02;
  1574  004830  0E02               	movlw	2
  1575  004832  6FB1               	movwf	177,b	;volatile
  1576                           
  1577                           ;mcc_generated_files/mcc.c: 72:     OSCTUNE = 0x00;
  1578  004834  0E00               	movlw	0
  1579  004836  6FB0               	movwf	176,b	;volatile
  1580  004838                     l68:
  1581                           
  1582                           ; BSR set to: 0
  1583                           ;mcc_generated_files/mcc.c: 74:     while(PLLR == 0)
  1584  004838  A1B2               	btfss	178,0,b	;volatile
  1585  00483A  EF21  F024         	goto	u1211
  1586  00483E  EF23  F024         	goto	u1210
  1587  004842                     u1211:
  1588  004842  EF1C  F024         	goto	l68
  1589  004846                     u1210:
  1590  004846                     
  1591                           ; BSR set to: 0
  1592  004846  0012               	return		;funcret
  1593  004848                     __end_of_OSCILLATOR_Initialize:
  1594                           	callstack 0
  1595                           
  1596 ;; *************** function _INTERRUPT_Initialize *****************
  1597 ;; Defined at:
  1598 ;;		line 52 in file "mcc_generated_files/interrupt_manager.c"
  1599 ;; Parameters:    Size  Location     Type
  1600 ;;		None
  1601 ;; Auto vars:     Size  Location     Type
  1602 ;;		None
  1603 ;; Return value:  Size  Location     Type
  1604 ;;                  1    wreg      void 
  1605 ;; Registers used:
  1606 ;;		None
  1607 ;; Tracked objects:
  1608 ;;		On entry : 0/0
  1609 ;;		On exit  : 0/0
  1610 ;;		Unchanged: 0/0
  1611 ;; Data sizes:     COMRAM   BANK5   BANK6   BANK7   BANK8   BANK9  BANK10  BANK11  BANK12  BANK13  BANK14  BANK15  BANK1
      +6  BANK17  BANK18  BANK19  BANK20  BANK21  BANK22  BANK23  BANK24  BANK25  BANK26  BANK27  BANK28  BANK29  BANK30  BANK3
      +1  BANK32  BANK33  BANK34  BANK35  BANK36  BANK37  BANK38  BANK39  BANK40  BANK41  BANK42  BANK43  BANK44  BANK45  BANK4
      +6  BANK47  BANK48  BANK49  BANK50  BANK51  BANK52  BANK53  BANK54  BANK55
  1612 ;;      Params:         0       0       0       0       0       0       0       0       0       0       0       0       
      +0       0       0       0       0       0       0       0       0       0       0       0       0       0       0       
      +0       0       0       0       0       0       0       0       0       0       0       0       0       0       0       
      +0       0       0       0       0       0       0       0       0       0
  1613 ;;      Locals:         0       0       0       0       0       0       0       0       0       0       0       0       
      +0       0       0       0       0       0       0       0       0       0       0       0       0       0       0       
      +0       0       0       0       0       0       0       0       0       0       0       0       0       0       0       
      +0       0       0       0       0       0       0       0       0       0
  1614 ;;      Temps:          0       0       0       0       0       0       0       0       0       0       0       0       
      +0       0       0       0       0       0       0       0       0       0       0       0       0       0       0       
      +0       0       0       0       0       0       0       0       0       0       0       0       0       0       0       
      +0       0       0       0       0       0       0       0       0       0
  1615 ;;      Totals:         0       0       0       0       0       0       0       0       0       0       0       0       
      +0       0       0       0       0       0       0       0       0       0       0       0       0       0       0       
      +0       0       0       0       0       0       0       0       0       0       0       0       0       0       0       
      +0       0       0       0       0       0       0       0       0       0
  1616 ;;Total ram usage:        0 bytes
  1617 ;; Hardware stack levels used: 1
  1618 ;; Hardware stack levels required when called: 12
  1619 ;; This function calls:
  1620 ;;		Nothing
  1621 ;; This function is called by:
  1622 ;;		_SYSTEM_Initialize
  1623 ;; This function uses a non-reentrant model
  1624 ;;
  1625                           
  1626                           	psect	text11
  1627  0049AC                     __ptext11:
  1628                           	callstack 0
  1629  0049AC                     _INTERRUPT_Initialize:
  1630                           	callstack 114
  1631  0049AC                     
  1632                           ;mcc_generated_files/interrupt_manager.c: 55:     INTCON0bits.IPEN = 0;
  1633  0049AC  9AD6               	bcf	214,5,c	;volatile
  1634  0049AE  0012               	return		;funcret
  1635  0049B0                     __end_of_INTERRUPT_Initialize:
  1636                           	callstack 0
  1637                           
  1638 ;; *************** function _ADC_Initialize *****************
  1639 ;; Defined at:
  1640 ;;		line 71 in file "mcc_generated_files/adc.c"
  1641 ;; Parameters:    Size  Location     Type
  1642 ;;		None
  1643 ;; Auto vars:     Size  Location     Type
  1644 ;;		None
  1645 ;; Return value:  Size  Location     Type
  1646 ;;                  1    wreg      void 
  1647 ;; Registers used:
  1648 ;;		wreg, status,2, status,0, cstack
  1649 ;; Tracked objects:
  1650 ;;		On entry : 0/0
  1651 ;;		On exit  : 0/0
  1652 ;;		Unchanged: 0/0
  1653 ;; Data sizes:     COMRAM   BANK5   BANK6   BANK7   BANK8   BANK9  BANK10  BANK11  BANK12  BANK13  BANK14  BANK15  BANK1
      +6  BANK17  BANK18  BANK19  BANK20  BANK21  BANK22  BANK23  BANK24  BANK25  BANK26  BANK27  BANK28  BANK29  BANK30  BANK3
      +1  BANK32  BANK33  BANK34  BANK35  BANK36  BANK37  BANK38  BANK39  BANK40  BANK41  BANK42  BANK43  BANK44  BANK45  BANK4
      +6  BANK47  BANK48  BANK49  BANK50  BANK51  BANK52  BANK53  BANK54  BANK55
  1654 ;;      Params:         0       0       0       0       0       0       0       0       0       0       0       0       
      +0       0       0       0       0       0       0       0       0       0       0       0       0       0       0       
      +0       0       0       0       0       0       0       0       0       0       0       0       0       0       0       
      +0       0       0       0       0       0       0       0       0       0
  1655 ;;      Locals:         0       0       0       0       0       0       0       0       0       0       0       0       
      +0       0       0       0       0       0       0       0       0       0       0       0       0       0       0       
      +0       0       0       0       0       0       0       0       0       0       0       0       0       0       0       
      +0       0       0       0       0       0       0       0       0       0
  1656 ;;      Temps:          0       0       0       0       0       0       0       0       0       0       0       0       
      +0       0       0       0       0       0       0       0       0       0       0       0       0       0       0       
      +0       0       0       0       0       0       0       0       0       0       0       0       0       0       0       
      +0       0       0       0       0       0       0       0       0       0
  1657 ;;      Totals:         0       0       0       0       0       0       0       0       0       0       0       0       
      +0       0       0       0       0       0       0       0       0       0       0       0       0       0       0       
      +0       0       0       0       0       0       0       0       0       0       0       0       0       0       0       
      +0       0       0       0       0       0       0       0       0       0
  1658 ;;Total ram usage:        0 bytes
  1659 ;; Hardware stack levels used: 1
  1660 ;; Hardware stack levels required when called: 13
  1661 ;; This function calls:
  1662 ;;		_ADC_SetADIInterruptHandler
  1663 ;;		_ADC_SetActiveClockTuningInterruptHandler
  1664 ;;		_ADC_SetContext1ThresholdInterruptHandler
  1665 ;;		_ADC_SetContext2ThresholdInterruptHandler
  1666 ;;		_ADC_SetContext3ThresholdInterruptHandler
  1667 ;;		_ADC_SetContext4ThresholdInterruptHandler
  1668 ;; This function is called by:
  1669 ;;		_SYSTEM_Initialize
  1670 ;; This function uses a non-reentrant model
  1671 ;;
  1672                           
  1673                           	psect	text12
  1674  003B2A                     __ptext12:
  1675                           	callstack 0
  1676  003B2A                     _ADC_Initialize:
  1677                           	callstack 113
  1678  003B2A                     
  1679                           ;mcc_generated_files/adc.c: 74:     ADACT = 0x02;
  1680  003B2A  0E02               	movlw	2
  1681  003B2C  0103               	movlb	3	; () banked
  1682  003B2E  6FF9               	movwf	249,b	;volatile
  1683                           
  1684                           ;mcc_generated_files/adc.c: 77:     ADCLK = 0x00;
  1685  003B30  0E00               	movlw	0
  1686  003B32  6FFA               	movwf	250,b	;volatile
  1687                           
  1688                           ;mcc_generated_files/adc.c: 80:     ADCP = 0x00;
  1689  003B34  0E00               	movlw	0
  1690  003B36  6FD8               	movwf	216,b	;volatile
  1691                           
  1692                           ;mcc_generated_files/adc.c: 86:     ADCTX = 0x0;
  1693  003B38  0E00               	movlw	0
  1694  003B3A  6FFB               	movwf	251,b	;volatile
  1695                           
  1696                           ;mcc_generated_files/adc.c: 89:     ADLTHL = 0x00;
  1697  003B3C  0E00               	movlw	0
  1698  003B3E  6FD9               	movwf	217,b	;volatile
  1699                           
  1700                           ;mcc_generated_files/adc.c: 92:     ADLTHH = 0x00;
  1701  003B40  0E00               	movlw	0
  1702  003B42  6FDA               	movwf	218,b	;volatile
  1703                           
  1704                           ;mcc_generated_files/adc.c: 95:     ADUTHL = 0x00;
  1705  003B44  0E00               	movlw	0
  1706  003B46  6FDB               	movwf	219,b	;volatile
  1707                           
  1708                           ;mcc_generated_files/adc.c: 98:     ADUTHH = 0x00;
  1709  003B48  0E00               	movlw	0
  1710  003B4A  6FDC               	movwf	220,b	;volatile
  1711                           
  1712                           ;mcc_generated_files/adc.c: 101:     ADSTPTL = 0x00;
  1713  003B4C  0E00               	movlw	0
  1714  003B4E  6FDF               	movwf	223,b	;volatile
  1715                           
  1716                           ;mcc_generated_files/adc.c: 104:     ADSTPTH = 0x00;
  1717  003B50  0E00               	movlw	0
  1718  003B52  6FE0               	movwf	224,b	;volatile
  1719                           
  1720                           ;mcc_generated_files/adc.c: 107:     ADACCL = 0x00;
  1721  003B54  0E00               	movlw	0
  1722  003B56  6FE3               	movwf	227,b	;volatile
  1723                           
  1724                           ;mcc_generated_files/adc.c: 110:     ADACCH = 0x00;
  1725  003B58  0E00               	movlw	0
  1726  003B5A  6FE4               	movwf	228,b	;volatile
  1727                           
  1728                           ;mcc_generated_files/adc.c: 113:     ADACCU = 0x00;
  1729  003B5C  0E00               	movlw	0
  1730  003B5E  6FE5               	movwf	229,b	;volatile
  1731                           
  1732                           ;mcc_generated_files/adc.c: 116:     ADCNT = 0x00;
  1733  003B60  0E00               	movlw	0
  1734  003B62  6FE6               	movwf	230,b	;volatile
  1735                           
  1736                           ;mcc_generated_files/adc.c: 119:     ADRPT = 0x00;
  1737  003B64  0E00               	movlw	0
  1738  003B66  6FE7               	movwf	231,b	;volatile
  1739                           
  1740                           ;mcc_generated_files/adc.c: 122:     ADRESL = 0x00;
  1741  003B68  0E00               	movlw	0
  1742  003B6A  6FEA               	movwf	234,b	;volatile
  1743                           
  1744                           ;mcc_generated_files/adc.c: 125:     ADRESH = 0x00;
  1745  003B6C  0E00               	movlw	0
  1746  003B6E  6FEB               	movwf	235,b	;volatile
  1747                           
  1748                           ;mcc_generated_files/adc.c: 128:     ADPCH = 0x00;
  1749  003B70  0E00               	movlw	0
  1750  003B72  6FEC               	movwf	236,b	;volatile
  1751                           
  1752                           ;mcc_generated_files/adc.c: 131:     ADACQL = 0xA0;
  1753  003B74  0EA0               	movlw	160
  1754  003B76  6FEE               	movwf	238,b	;volatile
  1755                           
  1756                           ;mcc_generated_files/adc.c: 134:     ADACQH = 0x00;
  1757  003B78  0E00               	movlw	0
  1758  003B7A  6FEF               	movwf	239,b	;volatile
  1759                           
  1760                           ;mcc_generated_files/adc.c: 137:     ADCAP = 0x00;
  1761  003B7C  0E00               	movlw	0
  1762  003B7E  6FF0               	movwf	240,b	;volatile
  1763                           
  1764                           ;mcc_generated_files/adc.c: 140:     ADPREL = 0x00;
  1765  003B80  0E00               	movlw	0
  1766  003B82  6FF1               	movwf	241,b	;volatile
  1767                           
  1768                           ;mcc_generated_files/adc.c: 143:     ADPREH = 0x00;
  1769  003B84  0E00               	movlw	0
  1770  003B86  6FF2               	movwf	242,b	;volatile
  1771                           
  1772                           ;mcc_generated_files/adc.c: 146:     ADCON0 = 0x00;
  1773  003B88  0E00               	movlw	0
  1774  003B8A  6FF3               	movwf	243,b	;volatile
  1775                           
  1776                           ;mcc_generated_files/adc.c: 149:     ADCON1 = 0x00;
  1777  003B8C  0E00               	movlw	0
  1778  003B8E  6FF4               	movwf	244,b	;volatile
  1779                           
  1780                           ;mcc_generated_files/adc.c: 152:     ADCON2 = 0x10;
  1781  003B90  0E10               	movlw	16
  1782  003B92  6FF5               	movwf	245,b	;volatile
  1783                           
  1784                           ;mcc_generated_files/adc.c: 155:     ADCON3 = 0x00;
  1785  003B94  0E00               	movlw	0
  1786  003B96  6FF6               	movwf	246,b	;volatile
  1787                           
  1788                           ;mcc_generated_files/adc.c: 158:     ADSTAT = 0x00;
  1789  003B98  0E00               	movlw	0
  1790  003B9A  6FF7               	movwf	247,b	;volatile
  1791                           
  1792                           ;mcc_generated_files/adc.c: 161:     ADREF = 0x00;
  1793  003B9C  0E00               	movlw	0
  1794  003B9E  6FF8               	movwf	248,b	;volatile
  1795                           
  1796                           ;mcc_generated_files/adc.c: 164:     ADCSEL1 = 0x80;
  1797  003BA0  0E80               	movlw	128
  1798  003BA2  6FFC               	movwf	252,b	;volatile
  1799                           
  1800                           ;mcc_generated_files/adc.c: 169:     ADCTX = 0x1;
  1801  003BA4  0E01               	movlw	1
  1802  003BA6  6FFB               	movwf	251,b	;volatile
  1803                           
  1804                           ;mcc_generated_files/adc.c: 172:     ADLTHL = 0x00;
  1805  003BA8  0E00               	movlw	0
  1806  003BAA  6FD9               	movwf	217,b	;volatile
  1807                           
  1808                           ;mcc_generated_files/adc.c: 175:     ADLTHH = 0x00;
  1809  003BAC  0E00               	movlw	0
  1810  003BAE  6FDA               	movwf	218,b	;volatile
  1811                           
  1812                           ;mcc_generated_files/adc.c: 178:     ADUTHL = 0x00;
  1813  003BB0  0E00               	movlw	0
  1814  003BB2  6FDB               	movwf	219,b	;volatile
  1815                           
  1816                           ;mcc_generated_files/adc.c: 181:     ADUTHH = 0x00;
  1817  003BB4  0E00               	movlw	0
  1818  003BB6  6FDC               	movwf	220,b	;volatile
  1819                           
  1820                           ;mcc_generated_files/adc.c: 184:     ADSTPTL = 0x00;
  1821  003BB8  0E00               	movlw	0
  1822  003BBA  6FDF               	movwf	223,b	;volatile
  1823                           
  1824                           ;mcc_generated_files/adc.c: 187:     ADSTPTH = 0x00;
  1825  003BBC  0E00               	movlw	0
  1826  003BBE  6FE0               	movwf	224,b	;volatile
  1827                           
  1828                           ;mcc_generated_files/adc.c: 190:     ADACCL = 0x00;
  1829  003BC0  0E00               	movlw	0
  1830  003BC2  6FE3               	movwf	227,b	;volatile
  1831                           
  1832                           ;mcc_generated_files/adc.c: 193:     ADACCH = 0x00;
  1833  003BC4  0E00               	movlw	0
  1834  003BC6  6FE4               	movwf	228,b	;volatile
  1835                           
  1836                           ;mcc_generated_files/adc.c: 196:     ADACCU = 0x00;
  1837  003BC8  0E00               	movlw	0
  1838  003BCA  6FE5               	movwf	229,b	;volatile
  1839                           
  1840                           ;mcc_generated_files/adc.c: 199:     ADCNT = 0x00;
  1841  003BCC  0E00               	movlw	0
  1842  003BCE  6FE6               	movwf	230,b	;volatile
  1843                           
  1844                           ;mcc_generated_files/adc.c: 202:     ADRPT = 0x00;
  1845  003BD0  0E00               	movlw	0
  1846  003BD2  6FE7               	movwf	231,b	;volatile
  1847                           
  1848                           ;mcc_generated_files/adc.c: 205:     ADRESL = 0x00;
  1849  003BD4  0E00               	movlw	0
  1850  003BD6  6FEA               	movwf	234,b	;volatile
  1851                           
  1852                           ;mcc_generated_files/adc.c: 208:     ADRESH = 0x00;
  1853  003BD8  0E00               	movlw	0
  1854  003BDA  6FEB               	movwf	235,b	;volatile
  1855                           
  1856                           ;mcc_generated_files/adc.c: 211:     ADPCH = 0x01;
  1857  003BDC  0E01               	movlw	1
  1858  003BDE  6FEC               	movwf	236,b	;volatile
  1859                           
  1860                           ;mcc_generated_files/adc.c: 214:     ADACQL = 0xA0;
  1861  003BE0  0EA0               	movlw	160
  1862  003BE2  6FEE               	movwf	238,b	;volatile
  1863                           
  1864                           ;mcc_generated_files/adc.c: 217:     ADACQH = 0x00;
  1865  003BE4  0E00               	movlw	0
  1866  003BE6  6FEF               	movwf	239,b	;volatile
  1867                           
  1868                           ;mcc_generated_files/adc.c: 220:     ADCAP = 0x00;
  1869  003BE8  0E00               	movlw	0
  1870  003BEA  6FF0               	movwf	240,b	;volatile
  1871                           
  1872                           ;mcc_generated_files/adc.c: 223:     ADPREL = 0x00;
  1873  003BEC  0E00               	movlw	0
  1874  003BEE  6FF1               	movwf	241,b	;volatile
  1875                           
  1876                           ;mcc_generated_files/adc.c: 226:     ADPREH = 0x00;
  1877  003BF0  0E00               	movlw	0
  1878  003BF2  6FF2               	movwf	242,b	;volatile
  1879                           
  1880                           ;mcc_generated_files/adc.c: 229:     ADCON0 = 0x00;
  1881  003BF4  0E00               	movlw	0
  1882  003BF6  6FF3               	movwf	243,b	;volatile
  1883                           
  1884                           ;mcc_generated_files/adc.c: 232:     ADCON1 = 0x00;
  1885  003BF8  0E00               	movlw	0
  1886  003BFA  6FF4               	movwf	244,b	;volatile
  1887                           
  1888                           ;mcc_generated_files/adc.c: 235:     ADCON2 = 0x10;
  1889  003BFC  0E10               	movlw	16
  1890  003BFE  6FF5               	movwf	245,b	;volatile
  1891                           
  1892                           ;mcc_generated_files/adc.c: 238:     ADCON3 = 0x00;
  1893  003C00  0E00               	movlw	0
  1894  003C02  6FF6               	movwf	246,b	;volatile
  1895                           
  1896                           ;mcc_generated_files/adc.c: 241:     ADSTAT = 0x00;
  1897  003C04  0E00               	movlw	0
  1898  003C06  6FF7               	movwf	247,b	;volatile
  1899                           
  1900                           ;mcc_generated_files/adc.c: 244:     ADREF = 0x00;
  1901  003C08  0E00               	movlw	0
  1902  003C0A  6FF8               	movwf	248,b	;volatile
  1903                           
  1904                           ;mcc_generated_files/adc.c: 247:     ADCSEL2 = 0x80;
  1905  003C0C  0E80               	movlw	128
  1906  003C0E  6FFD               	movwf	253,b	;volatile
  1907                           
  1908                           ;mcc_generated_files/adc.c: 252:     ADCTX = 0x2;
  1909  003C10  0E02               	movlw	2
  1910  003C12  6FFB               	movwf	251,b	;volatile
  1911                           
  1912                           ;mcc_generated_files/adc.c: 255:     ADLTHL = 0x00;
  1913  003C14  0E00               	movlw	0
  1914  003C16  6FD9               	movwf	217,b	;volatile
  1915                           
  1916                           ;mcc_generated_files/adc.c: 258:     ADLTHH = 0x00;
  1917  003C18  0E00               	movlw	0
  1918  003C1A  6FDA               	movwf	218,b	;volatile
  1919                           
  1920                           ;mcc_generated_files/adc.c: 261:     ADUTHL = 0x00;
  1921  003C1C  0E00               	movlw	0
  1922  003C1E  6FDB               	movwf	219,b	;volatile
  1923                           
  1924                           ;mcc_generated_files/adc.c: 264:     ADUTHH = 0x00;
  1925  003C20  0E00               	movlw	0
  1926  003C22  6FDC               	movwf	220,b	;volatile
  1927                           
  1928                           ;mcc_generated_files/adc.c: 267:     ADSTPTL = 0x00;
  1929  003C24  0E00               	movlw	0
  1930  003C26  6FDF               	movwf	223,b	;volatile
  1931                           
  1932                           ;mcc_generated_files/adc.c: 270:     ADSTPTH = 0x00;
  1933  003C28  0E00               	movlw	0
  1934  003C2A  6FE0               	movwf	224,b	;volatile
  1935                           
  1936                           ;mcc_generated_files/adc.c: 273:     ADACCL = 0x00;
  1937  003C2C  0E00               	movlw	0
  1938  003C2E  6FE3               	movwf	227,b	;volatile
  1939                           
  1940                           ;mcc_generated_files/adc.c: 276:     ADACCH = 0x00;
  1941  003C30  0E00               	movlw	0
  1942  003C32  6FE4               	movwf	228,b	;volatile
  1943                           
  1944                           ;mcc_generated_files/adc.c: 279:     ADACCU = 0x00;
  1945  003C34  0E00               	movlw	0
  1946  003C36  6FE5               	movwf	229,b	;volatile
  1947                           
  1948                           ;mcc_generated_files/adc.c: 282:     ADCNT = 0x00;
  1949  003C38  0E00               	movlw	0
  1950  003C3A  6FE6               	movwf	230,b	;volatile
  1951                           
  1952                           ;mcc_generated_files/adc.c: 285:     ADRPT = 0x00;
  1953  003C3C  0E00               	movlw	0
  1954  003C3E  6FE7               	movwf	231,b	;volatile
  1955                           
  1956                           ;mcc_generated_files/adc.c: 288:     ADRESL = 0x00;
  1957  003C40  0E00               	movlw	0
  1958  003C42  6FEA               	movwf	234,b	;volatile
  1959                           
  1960                           ;mcc_generated_files/adc.c: 291:     ADRESH = 0x00;
  1961  003C44  0E00               	movlw	0
  1962  003C46  6FEB               	movwf	235,b	;volatile
  1963                           
  1964                           ;mcc_generated_files/adc.c: 294:     ADPCH = 0x00;
  1965  003C48  0E00               	movlw	0
  1966  003C4A  6FEC               	movwf	236,b	;volatile
  1967                           
  1968                           ;mcc_generated_files/adc.c: 297:     ADACQL = 0xA0;
  1969  003C4C  0EA0               	movlw	160
  1970  003C4E  6FEE               	movwf	238,b	;volatile
  1971                           
  1972                           ;mcc_generated_files/adc.c: 300:     ADACQH = 0x00;
  1973  003C50  0E00               	movlw	0
  1974  003C52  6FEF               	movwf	239,b	;volatile
  1975                           
  1976                           ;mcc_generated_files/adc.c: 303:     ADCAP = 0x00;
  1977  003C54  0E00               	movlw	0
  1978  003C56  6FF0               	movwf	240,b	;volatile
  1979                           
  1980                           ;mcc_generated_files/adc.c: 306:     ADPREL = 0x00;
  1981  003C58  0E00               	movlw	0
  1982  003C5A  6FF1               	movwf	241,b	;volatile
  1983                           
  1984                           ;mcc_generated_files/adc.c: 309:     ADPREH = 0x00;
  1985  003C5C  0E00               	movlw	0
  1986  003C5E  6FF2               	movwf	242,b	;volatile
  1987                           
  1988                           ;mcc_generated_files/adc.c: 312:     ADCON0 = 0x00;
  1989  003C60  0E00               	movlw	0
  1990  003C62  6FF3               	movwf	243,b	;volatile
  1991                           
  1992                           ;mcc_generated_files/adc.c: 315:     ADCON1 = 0x00;
  1993  003C64  0E00               	movlw	0
  1994  003C66  6FF4               	movwf	244,b	;volatile
  1995                           
  1996                           ;mcc_generated_files/adc.c: 318:     ADCON2 = 0x10;
  1997  003C68  0E10               	movlw	16
  1998  003C6A  6FF5               	movwf	245,b	;volatile
  1999                           
  2000                           ;mcc_generated_files/adc.c: 321:     ADCON3 = 0x00;
  2001  003C6C  0E00               	movlw	0
  2002  003C6E  6FF6               	movwf	246,b	;volatile
  2003                           
  2004                           ;mcc_generated_files/adc.c: 324:     ADSTAT = 0x00;
  2005  003C70  0E00               	movlw	0
  2006  003C72  6FF7               	movwf	247,b	;volatile
  2007                           
  2008                           ;mcc_generated_files/adc.c: 327:     ADREF = 0x00;
  2009  003C74  0E00               	movlw	0
  2010  003C76  6FF8               	movwf	248,b	;volatile
  2011                           
  2012                           ;mcc_generated_files/adc.c: 330:     ADCSEL3 = 0x80;
  2013  003C78  0E80               	movlw	128
  2014  003C7A  6FFE               	movwf	254,b	;volatile
  2015                           
  2016                           ;mcc_generated_files/adc.c: 335:     ADCTX = 0x3;
  2017  003C7C  0E03               	movlw	3
  2018  003C7E  6FFB               	movwf	251,b	;volatile
  2019                           
  2020                           ;mcc_generated_files/adc.c: 338:     ADLTHL = 0x00;
  2021  003C80  0E00               	movlw	0
  2022  003C82  6FD9               	movwf	217,b	;volatile
  2023                           
  2024                           ;mcc_generated_files/adc.c: 341:     ADLTHH = 0x00;
  2025  003C84  0E00               	movlw	0
  2026  003C86  6FDA               	movwf	218,b	;volatile
  2027                           
  2028                           ;mcc_generated_files/adc.c: 344:     ADUTHL = 0x00;
  2029  003C88  0E00               	movlw	0
  2030  003C8A  6FDB               	movwf	219,b	;volatile
  2031                           
  2032                           ;mcc_generated_files/adc.c: 347:     ADUTHH = 0x00;
  2033  003C8C  0E00               	movlw	0
  2034  003C8E  6FDC               	movwf	220,b	;volatile
  2035                           
  2036                           ;mcc_generated_files/adc.c: 350:     ADSTPTL = 0x00;
  2037  003C90  0E00               	movlw	0
  2038  003C92  6FDF               	movwf	223,b	;volatile
  2039                           
  2040                           ;mcc_generated_files/adc.c: 353:     ADSTPTH = 0x00;
  2041  003C94  0E00               	movlw	0
  2042  003C96  6FE0               	movwf	224,b	;volatile
  2043                           
  2044                           ;mcc_generated_files/adc.c: 356:     ADACCL = 0x00;
  2045  003C98  0E00               	movlw	0
  2046  003C9A  6FE3               	movwf	227,b	;volatile
  2047                           
  2048                           ;mcc_generated_files/adc.c: 359:     ADACCH = 0x00;
  2049  003C9C  0E00               	movlw	0
  2050  003C9E  6FE4               	movwf	228,b	;volatile
  2051                           
  2052                           ;mcc_generated_files/adc.c: 362:     ADACCU = 0x00;
  2053  003CA0  0E00               	movlw	0
  2054  003CA2  6FE5               	movwf	229,b	;volatile
  2055                           
  2056                           ;mcc_generated_files/adc.c: 365:     ADCNT = 0x00;
  2057  003CA4  0E00               	movlw	0
  2058  003CA6  6FE6               	movwf	230,b	;volatile
  2059                           
  2060                           ;mcc_generated_files/adc.c: 368:     ADRPT = 0x00;
  2061  003CA8  0E00               	movlw	0
  2062  003CAA  6FE7               	movwf	231,b	;volatile
  2063                           
  2064                           ;mcc_generated_files/adc.c: 371:     ADRESL = 0x00;
  2065  003CAC  0E00               	movlw	0
  2066  003CAE  6FEA               	movwf	234,b	;volatile
  2067                           
  2068                           ;mcc_generated_files/adc.c: 374:     ADRESH = 0x00;
  2069  003CB0  0E00               	movlw	0
  2070  003CB2  6FEB               	movwf	235,b	;volatile
  2071                           
  2072                           ;mcc_generated_files/adc.c: 377:     ADPCH = 0x01;
  2073  003CB4  0E01               	movlw	1
  2074  003CB6  6FEC               	movwf	236,b	;volatile
  2075                           
  2076                           ;mcc_generated_files/adc.c: 380:     ADACQL = 0xA0;
  2077  003CB8  0EA0               	movlw	160
  2078  003CBA  6FEE               	movwf	238,b	;volatile
  2079                           
  2080                           ;mcc_generated_files/adc.c: 383:     ADACQH = 0x00;
  2081  003CBC  0E00               	movlw	0
  2082  003CBE  6FEF               	movwf	239,b	;volatile
  2083                           
  2084                           ;mcc_generated_files/adc.c: 386:     ADCAP = 0x00;
  2085  003CC0  0E00               	movlw	0
  2086  003CC2  6FF0               	movwf	240,b	;volatile
  2087                           
  2088                           ;mcc_generated_files/adc.c: 389:     ADPREL = 0x00;
  2089  003CC4  0E00               	movlw	0
  2090  003CC6  6FF1               	movwf	241,b	;volatile
  2091                           
  2092                           ;mcc_generated_files/adc.c: 392:     ADPREH = 0x00;
  2093  003CC8  0E00               	movlw	0
  2094  003CCA  6FF2               	movwf	242,b	;volatile
  2095                           
  2096                           ;mcc_generated_files/adc.c: 395:     ADCON0 = 0x00;
  2097  003CCC  0E00               	movlw	0
  2098  003CCE  6FF3               	movwf	243,b	;volatile
  2099                           
  2100                           ;mcc_generated_files/adc.c: 398:     ADCON1 = 0x00;
  2101  003CD0  0E00               	movlw	0
  2102  003CD2  6FF4               	movwf	244,b	;volatile
  2103                           
  2104                           ;mcc_generated_files/adc.c: 401:     ADCON2 = 0x10;
  2105  003CD4  0E10               	movlw	16
  2106  003CD6  6FF5               	movwf	245,b	;volatile
  2107                           
  2108                           ;mcc_generated_files/adc.c: 404:     ADCON3 = 0x07;
  2109  003CD8  0E07               	movlw	7
  2110  003CDA  6FF6               	movwf	246,b	;volatile
  2111                           
  2112                           ;mcc_generated_files/adc.c: 407:     ADSTAT = 0x00;
  2113  003CDC  0E00               	movlw	0
  2114  003CDE  6FF7               	movwf	247,b	;volatile
  2115                           
  2116                           ;mcc_generated_files/adc.c: 410:     ADREF = 0x00;
  2117  003CE0  0E00               	movlw	0
  2118  003CE2  6FF8               	movwf	248,b	;volatile
  2119                           
  2120                           ;mcc_generated_files/adc.c: 413:     ADCSEL4 = 0xC0;
  2121  003CE4  0EC0               	movlw	192
  2122  003CE6  6FFF               	movwf	255,b	;volatile
  2123  003CE8                     
  2124                           ; BSR set to: 3
  2125                           ;mcc_generated_files/adc.c: 416:     PIR1bits.ADIF = 0;
  2126  003CE8  94AF               	bcf	175,2,c	;volatile
  2127  003CEA                     
  2128                           ; BSR set to: 3
  2129                           ;mcc_generated_files/adc.c: 419:     PIR1bits.ACTIF = 0;
  2130  003CEA  96AF               	bcf	175,3,c	;volatile
  2131  003CEC                     
  2132                           ; BSR set to: 3
  2133                           ;mcc_generated_files/adc.c: 422:     PIR2bits.ADCH1IF = 0;
  2134  003CEC  90B0               	bcf	176,0,c	;volatile
  2135  003CEE                     
  2136                           ; BSR set to: 3
  2137                           ;mcc_generated_files/adc.c: 423:     PIR2bits.ADCH2IF = 0;
  2138  003CEE  92B0               	bcf	176,1,c	;volatile
  2139  003CF0                     
  2140                           ; BSR set to: 3
  2141                           ;mcc_generated_files/adc.c: 424:     PIR2bits.ADCH3IF = 0;
  2142  003CF0  94B0               	bcf	176,2,c	;volatile
  2143  003CF2                     
  2144                           ; BSR set to: 3
  2145                           ;mcc_generated_files/adc.c: 425:     PIR2bits.ADCH4IF = 0;
  2146  003CF2  96B0               	bcf	176,3,c	;volatile
  2147  003CF4                     
  2148                           ; BSR set to: 3
  2149                           ;mcc_generated_files/adc.c: 428:     PIE2bits.ADCH4IE = 1;
  2150  003CF4  86A0               	bsf	160,3,c	;volatile
  2151  003CF6                     
  2152                           ; BSR set to: 3
  2153                           ;mcc_generated_files/adc.c: 431:     ADC_SetADIInterruptHandler(ADC_DefaultADI_ISR);
  2154  003CF6  0E00               	movlw	0
  2155  003CF8  0105               	movlb	5	; () banked
  2156  003CFA  6FBB               	movwf	ADC_SetADIInterruptHandler@InterruptHandler& (0+255),b
  2157  003CFC  0E00               	movlw	0
  2158  003CFE  6FBC               	movwf	(ADC_SetADIInterruptHandler@InterruptHandler+1)& (0+255),b
  2159  003D00  0E00               	movlw	0
  2160  003D02  6FBD               	movwf	(ADC_SetADIInterruptHandler@InterruptHandler+2)& (0+255),b
  2161  003D04  ECB0  F024         	call	_ADC_SetADIInterruptHandler	;wreg free
  2162  003D08                     
  2163                           ;mcc_generated_files/adc.c: 432:     ADC_SetContext1ThresholdInterruptHandler(ADC_Defaul
      +                          tContext1Threshold_ISR);
  2164  003D08  0E00               	movlw	0
  2165  003D0A  0105               	movlb	5	; () banked
  2166  003D0C  6FBB               	movwf	ADC_SetContext1ThresholdInterruptHandler@InterruptHandler& (0+255),b
  2167  003D0E  0E00               	movlw	0
  2168  003D10  6FBC               	movwf	(ADC_SetContext1ThresholdInterruptHandler@InterruptHandler+1)& (0+255),b
  2169  003D12  0E00               	movlw	0
  2170  003D14  6FBD               	movwf	(ADC_SetContext1ThresholdInterruptHandler@InterruptHandler+2)& (0+255),b
  2171  003D16  ECA2  F024         	call	_ADC_SetContext1ThresholdInterruptHandler	;wreg free
  2172  003D1A                     
  2173                           ;mcc_generated_files/adc.c: 433:     ADC_SetContext2ThresholdInterruptHandler(ADC_Defaul
      +                          tContext2Threshold_ISR);
  2174  003D1A  0E00               	movlw	0
  2175  003D1C  0105               	movlb	5	; () banked
  2176  003D1E  6FBB               	movwf	ADC_SetContext2ThresholdInterruptHandler@InterruptHandler& (0+255),b
  2177  003D20  0E00               	movlw	0
  2178  003D22  6FBC               	movwf	(ADC_SetContext2ThresholdInterruptHandler@InterruptHandler+1)& (0+255),b
  2179  003D24  0E00               	movlw	0
  2180  003D26  6FBD               	movwf	(ADC_SetContext2ThresholdInterruptHandler@InterruptHandler+2)& (0+255),b
  2181  003D28  EC9B  F024         	call	_ADC_SetContext2ThresholdInterruptHandler	;wreg free
  2182  003D2C                     
  2183                           ;mcc_generated_files/adc.c: 434:     ADC_SetContext3ThresholdInterruptHandler(ADC_Defaul
      +                          tContext3Threshold_ISR);
  2184  003D2C  0E00               	movlw	0
  2185  003D2E  0105               	movlb	5	; () banked
  2186  003D30  6FBB               	movwf	ADC_SetContext3ThresholdInterruptHandler@InterruptHandler& (0+255),b
  2187  003D32  0E00               	movlw	0
  2188  003D34  6FBC               	movwf	(ADC_SetContext3ThresholdInterruptHandler@InterruptHandler+1)& (0+255),b
  2189  003D36  0E00               	movlw	0
  2190  003D38  6FBD               	movwf	(ADC_SetContext3ThresholdInterruptHandler@InterruptHandler+2)& (0+255),b
  2191  003D3A  EC94  F024         	call	_ADC_SetContext3ThresholdInterruptHandler	;wreg free
  2192  003D3E                     
  2193                           ;mcc_generated_files/adc.c: 435:     ADC_SetContext4ThresholdInterruptHandler(ADC_Defaul
      +                          tContext4Threshold_ISR);
  2194  003D3E  0EB0               	movlw	low _ADC_DefaultContext4Threshold_ISR
  2195  003D40  0105               	movlb	5	; () banked
  2196  003D42  6FBB               	movwf	ADC_SetContext4ThresholdInterruptHandler@InterruptHandler& (0+255),b
  2197  003D44  0E49               	movlw	high _ADC_DefaultContext4Threshold_ISR
  2198  003D46  6FBC               	movwf	(ADC_SetContext4ThresholdInterruptHandler@InterruptHandler+1)& (0+255),b
  2199  003D48  0E00               	movlw	low (_ADC_DefaultContext4Threshold_ISR shr (0+16))
  2200  003D4A  6FBD               	movwf	(ADC_SetContext4ThresholdInterruptHandler@InterruptHandler+2)& (0+255),b
  2201  003D4C  EC8D  F024         	call	_ADC_SetContext4ThresholdInterruptHandler	;wreg free
  2202  003D50                     
  2203                           ;mcc_generated_files/adc.c: 436:     ADC_SetActiveClockTuningInterruptHandler(ADC_Defaul
      +                          tActiveClockTuning_ISR);
  2204  003D50  0E00               	movlw	0
  2205  003D52  0105               	movlb	5	; () banked
  2206  003D54  6FBB               	movwf	ADC_SetActiveClockTuningInterruptHandler@InterruptHandler& (0+255),b
  2207  003D56  0E00               	movlw	0
  2208  003D58  6FBC               	movwf	(ADC_SetActiveClockTuningInterruptHandler@InterruptHandler+1)& (0+255),b
  2209  003D5A  0E00               	movlw	0
  2210  003D5C  6FBD               	movwf	(ADC_SetActiveClockTuningInterruptHandler@InterruptHandler+2)& (0+255),b
  2211  003D5E  ECA9  F024         	call	_ADC_SetActiveClockTuningInterruptHandler	;wreg free
  2212                           
  2213                           ;mcc_generated_files/adc.c: 439:     ADCON0 = 0xA4;
  2214  003D62  0EA4               	movlw	164
  2215  003D64  0103               	movlb	3	; () banked
  2216  003D66  6FF3               	movwf	243,b	;volatile
  2217  003D68                     
  2218                           ; BSR set to: 3
  2219  003D68  0012               	return		;funcret
  2220  003D6A                     __end_of_ADC_Initialize:
  2221                           	callstack 0
  2222                           
  2223 ;; *************** function _ADC_SetContext4ThresholdInterruptHandler *****************
  2224 ;; Defined at:
  2225 ;;		line 740 in file "mcc_generated_files/adc.c"
  2226 ;; Parameters:    Size  Location     Type
  2227 ;;  InterruptHan    3    5[BANK5 ] PTR FTN()void 
  2228 ;;		 -> ADC_UserContext4Threshold_ISR(1), ADC_DefaultContext4Threshold_ISR(1), 
  2229 ;; Auto vars:     Size  Location     Type
  2230 ;;		None
  2231 ;; Return value:  Size  Location     Type
  2232 ;;                  1    wreg      void 
  2233 ;; Registers used:
  2234 ;;		wreg, status,2, status,0
  2235 ;; Tracked objects:
  2236 ;;		On entry : 0/0
  2237 ;;		On exit  : 0/0
  2238 ;;		Unchanged: 0/0
  2239 ;; Data sizes:     COMRAM   BANK5   BANK6   BANK7   BANK8   BANK9  BANK10  BANK11  BANK12  BANK13  BANK14  BANK15  BANK1
      +6  BANK17  BANK18  BANK19  BANK20  BANK21  BANK22  BANK23  BANK24  BANK25  BANK26  BANK27  BANK28  BANK29  BANK30  BANK3
      +1  BANK32  BANK33  BANK34  BANK35  BANK36  BANK37  BANK38  BANK39  BANK40  BANK41  BANK42  BANK43  BANK44  BANK45  BANK4
      +6  BANK47  BANK48  BANK49  BANK50  BANK51  BANK52  BANK53  BANK54  BANK55
  2240 ;;      Params:         0       3       0       0       0       0       0       0       0       0       0       0       
      +0       0       0       0       0       0       0       0       0       0       0       0       0       0       0       
      +0       0       0       0       0       0       0       0       0       0       0       0       0       0       0       
      +0       0       0       0       0       0       0       0       0       0
  2241 ;;      Locals:         0       0       0       0       0       0       0       0       0       0       0       0       
      +0       0       0       0       0       0       0       0       0       0       0       0       0       0       0       
      +0       0       0       0       0       0       0       0       0       0       0       0       0       0       0       
      +0       0       0       0       0       0       0       0       0       0
  2242 ;;      Temps:          0       0       0       0       0       0       0       0       0       0       0       0       
      +0       0       0       0       0       0       0       0       0       0       0       0       0       0       0       
      +0       0       0       0       0       0       0       0       0       0       0       0       0       0       0       
      +0       0       0       0       0       0       0       0       0       0
  2243 ;;      Totals:         0       3       0       0       0       0       0       0       0       0       0       0       
      +0       0       0       0       0       0       0       0       0       0       0       0       0       0       0       
      +0       0       0       0       0       0       0       0       0       0       0       0       0       0       0       
      +0       0       0       0       0       0       0       0       0       0
  2244 ;;Total ram usage:        3 bytes
  2245 ;; Hardware stack levels used: 1
  2246 ;; Hardware stack levels required when called: 12
  2247 ;; This function calls:
  2248 ;;		Nothing
  2249 ;; This function is called by:
  2250 ;;		_ADC_Initialize
  2251 ;;		_main
  2252 ;; This function uses a non-reentrant model
  2253 ;;
  2254                           
  2255                           	psect	text13
  2256  00491A                     __ptext13:
  2257                           	callstack 0
  2258  00491A                     _ADC_SetContext4ThresholdInterruptHandler:
  2259                           	callstack 113
  2260  00491A                     
  2261                           ;mcc_generated_files/adc.c: 740: void ADC_SetContext4ThresholdInterruptHandler(void (* I
      +                          nterruptHandler)(void));mcc_generated_files/adc.c: 741: {;mcc_generated_files/adc.c: 742
      +                          :     ADC_Context4Thereshld_ISR = InterruptHandler;
  2262  00491A  C5BB  F5A7         	movff	ADC_SetContext4ThresholdInterruptHandler@InterruptHandler,_ADC_Context4Thereshld_
      +                          ISR
  2263  00491E  C5BC  F5A8         	movff	ADC_SetContext4ThresholdInterruptHandler@InterruptHandler+1,_ADC_Context4Thereshl
      +                          d_ISR+1
  2264  004922  C5BD  F5A9         	movff	ADC_SetContext4ThresholdInterruptHandler@InterruptHandler+2,_ADC_Context4Thereshl
      +                          d_ISR+2
  2265  004926  0012               	return		;funcret
  2266  004928                     __end_of_ADC_SetContext4ThresholdInterruptHandler:
  2267                           	callstack 0
  2268                           
  2269 ;; *************** function _ADC_SetContext3ThresholdInterruptHandler *****************
  2270 ;; Defined at:
  2271 ;;		line 735 in file "mcc_generated_files/adc.c"
  2272 ;; Parameters:    Size  Location     Type
  2273 ;;  InterruptHan    3    5[BANK5 ] PTR FTN()void 
  2274 ;;		 -> ADC_DefaultContext3Threshold_ISR(1), 
  2275 ;; Auto vars:     Size  Location     Type
  2276 ;;		None
  2277 ;; Return value:  Size  Location     Type
  2278 ;;                  1    wreg      void 
  2279 ;; Registers used:
  2280 ;;		wreg, status,2, status,0
  2281 ;; Tracked objects:
  2282 ;;		On entry : 0/0
  2283 ;;		On exit  : 0/0
  2284 ;;		Unchanged: 0/0
  2285 ;; Data sizes:     COMRAM   BANK5   BANK6   BANK7   BANK8   BANK9  BANK10  BANK11  BANK12  BANK13  BANK14  BANK15  BANK1
      +6  BANK17  BANK18  BANK19  BANK20  BANK21  BANK22  BANK23  BANK24  BANK25  BANK26  BANK27  BANK28  BANK29  BANK30  BANK3
      +1  BANK32  BANK33  BANK34  BANK35  BANK36  BANK37  BANK38  BANK39  BANK40  BANK41  BANK42  BANK43  BANK44  BANK45  BANK4
      +6  BANK47  BANK48  BANK49  BANK50  BANK51  BANK52  BANK53  BANK54  BANK55
  2286 ;;      Params:         0       3       0       0       0       0       0       0       0       0       0       0       
      +0       0       0       0       0       0       0       0       0       0       0       0       0       0       0       
      +0       0       0       0       0       0       0       0       0       0       0       0       0       0       0       
      +0       0       0       0       0       0       0       0       0       0
  2287 ;;      Locals:         0       0       0       0       0       0       0       0       0       0       0       0       
      +0       0       0       0       0       0       0       0       0       0       0       0       0       0       0       
      +0       0       0       0       0       0       0       0       0       0       0       0       0       0       0       
      +0       0       0       0       0       0       0       0       0       0
  2288 ;;      Temps:          0       0       0       0       0       0       0       0       0       0       0       0       
      +0       0       0       0       0       0       0       0       0       0       0       0       0       0       0       
      +0       0       0       0       0       0       0       0       0       0       0       0       0       0       0       
      +0       0       0       0       0       0       0       0       0       0
  2289 ;;      Totals:         0       3       0       0       0       0       0       0       0       0       0       0       
      +0       0       0       0       0       0       0       0       0       0       0       0       0       0       0       
      +0       0       0       0       0       0       0       0       0       0       0       0       0       0       0       
      +0       0       0       0       0       0       0       0       0       0
  2290 ;;Total ram usage:        3 bytes
  2291 ;; Hardware stack levels used: 1
  2292 ;; Hardware stack levels required when called: 12
  2293 ;; This function calls:
  2294 ;;		Nothing
  2295 ;; This function is called by:
  2296 ;;		_ADC_Initialize
  2297 ;; This function uses a non-reentrant model
  2298 ;;
  2299                           
  2300                           	psect	text14
  2301  004928                     __ptext14:
  2302                           	callstack 0
  2303  004928                     _ADC_SetContext3ThresholdInterruptHandler:
  2304                           	callstack 113
  2305  004928                     
  2306                           ;mcc_generated_files/adc.c: 735: void ADC_SetContext3ThresholdInterruptHandler(void (* I
      +                          nterruptHandler)(void));mcc_generated_files/adc.c: 736: {;mcc_generated_files/adc.c: 737
      +                          :     ADC_Context3Thereshld_ISR = InterruptHandler;
  2307  004928  C5BB  F5AA         	movff	ADC_SetContext3ThresholdInterruptHandler@InterruptHandler,_ADC_Context3Thereshld_
      +                          ISR
  2308  00492C  C5BC  F5AB         	movff	ADC_SetContext3ThresholdInterruptHandler@InterruptHandler+1,_ADC_Context3Thereshl
      +                          d_ISR+1
  2309  004930  C5BD  F5AC         	movff	ADC_SetContext3ThresholdInterruptHandler@InterruptHandler+2,_ADC_Context3Thereshl
      +                          d_ISR+2
  2310  004934  0012               	return		;funcret
  2311  004936                     __end_of_ADC_SetContext3ThresholdInterruptHandler:
  2312                           	callstack 0
  2313                           
  2314 ;; *************** function _ADC_SetContext2ThresholdInterruptHandler *****************
  2315 ;; Defined at:
  2316 ;;		line 730 in file "mcc_generated_files/adc.c"
  2317 ;; Parameters:    Size  Location     Type
  2318 ;;  InterruptHan    3    5[BANK5 ] PTR FTN()void 
  2319 ;;		 -> ADC_DefaultContext2Threshold_ISR(1), 
  2320 ;; Auto vars:     Size  Location     Type
  2321 ;;		None
  2322 ;; Return value:  Size  Location     Type
  2323 ;;                  1    wreg      void 
  2324 ;; Registers used:
  2325 ;;		wreg, status,2, status,0
  2326 ;; Tracked objects:
  2327 ;;		On entry : 0/0
  2328 ;;		On exit  : 0/0
  2329 ;;		Unchanged: 0/0
  2330 ;; Data sizes:     COMRAM   BANK5   BANK6   BANK7   BANK8   BANK9  BANK10  BANK11  BANK12  BANK13  BANK14  BANK15  BANK1
      +6  BANK17  BANK18  BANK19  BANK20  BANK21  BANK22  BANK23  BANK24  BANK25  BANK26  BANK27  BANK28  BANK29  BANK30  BANK3
      +1  BANK32  BANK33  BANK34  BANK35  BANK36  BANK37  BANK38  BANK39  BANK40  BANK41  BANK42  BANK43  BANK44  BANK45  BANK4
      +6  BANK47  BANK48  BANK49  BANK50  BANK51  BANK52  BANK53  BANK54  BANK55
  2331 ;;      Params:         0       3       0       0       0       0       0       0       0       0       0       0       
      +0       0       0       0       0       0       0       0       0       0       0       0       0       0       0       
      +0       0       0       0       0       0       0       0       0       0       0       0       0       0       0       
      +0       0       0       0       0       0       0       0       0       0
  2332 ;;      Locals:         0       0       0       0       0       0       0       0       0       0       0       0       
      +0       0       0       0       0       0       0       0       0       0       0       0       0       0       0       
      +0       0       0       0       0       0       0       0       0       0       0       0       0       0       0       
      +0       0       0       0       0       0       0       0       0       0
  2333 ;;      Temps:          0       0       0       0       0       0       0       0       0       0       0       0       
      +0       0       0       0       0       0       0       0       0       0       0       0       0       0       0       
      +0       0       0       0       0       0       0       0       0       0       0       0       0       0       0       
      +0       0       0       0       0       0       0       0       0       0
  2334 ;;      Totals:         0       3       0       0       0       0       0       0       0       0       0       0       
      +0       0       0       0       0       0       0       0       0       0       0       0       0       0       0       
      +0       0       0       0       0       0       0       0       0       0       0       0       0       0       0       
      +0       0       0       0       0       0       0       0       0       0
  2335 ;;Total ram usage:        3 bytes
  2336 ;; Hardware stack levels used: 1
  2337 ;; Hardware stack levels required when called: 12
  2338 ;; This function calls:
  2339 ;;		Nothing
  2340 ;; This function is called by:
  2341 ;;		_ADC_Initialize
  2342 ;; This function uses a non-reentrant model
  2343 ;;
  2344                           
  2345                           	psect	text15
  2346  004936                     __ptext15:
  2347                           	callstack 0
  2348  004936                     _ADC_SetContext2ThresholdInterruptHandler:
  2349                           	callstack 113
  2350  004936                     
  2351                           ;mcc_generated_files/adc.c: 730: void ADC_SetContext2ThresholdInterruptHandler(void (* I
      +                          nterruptHandler)(void));mcc_generated_files/adc.c: 731: {;mcc_generated_files/adc.c: 732
      +                          :     ADC_Context2Thereshld_ISR = InterruptHandler;
  2352  004936  C5BB  F5AD         	movff	ADC_SetContext2ThresholdInterruptHandler@InterruptHandler,_ADC_Context2Thereshld_
      +                          ISR
  2353  00493A  C5BC  F5AE         	movff	ADC_SetContext2ThresholdInterruptHandler@InterruptHandler+1,_ADC_Context2Thereshl
      +                          d_ISR+1
  2354  00493E  C5BD  F5AF         	movff	ADC_SetContext2ThresholdInterruptHandler@InterruptHandler+2,_ADC_Context2Thereshl
      +                          d_ISR+2
  2355  004942  0012               	return		;funcret
  2356  004944                     __end_of_ADC_SetContext2ThresholdInterruptHandler:
  2357                           	callstack 0
  2358                           
  2359 ;; *************** function _ADC_SetContext1ThresholdInterruptHandler *****************
  2360 ;; Defined at:
  2361 ;;		line 725 in file "mcc_generated_files/adc.c"
  2362 ;; Parameters:    Size  Location     Type
  2363 ;;  InterruptHan    3    5[BANK5 ] PTR FTN()void 
  2364 ;;		 -> ADC_DefaultContext1Threshold_ISR(1), 
  2365 ;; Auto vars:     Size  Location     Type
  2366 ;;		None
  2367 ;; Return value:  Size  Location     Type
  2368 ;;                  1    wreg      void 
  2369 ;; Registers used:
  2370 ;;		wreg, status,2, status,0
  2371 ;; Tracked objects:
  2372 ;;		On entry : 0/0
  2373 ;;		On exit  : 0/0
  2374 ;;		Unchanged: 0/0
  2375 ;; Data sizes:     COMRAM   BANK5   BANK6   BANK7   BANK8   BANK9  BANK10  BANK11  BANK12  BANK13  BANK14  BANK15  BANK1
      +6  BANK17  BANK18  BANK19  BANK20  BANK21  BANK22  BANK23  BANK24  BANK25  BANK26  BANK27  BANK28  BANK29  BANK30  BANK3
      +1  BANK32  BANK33  BANK34  BANK35  BANK36  BANK37  BANK38  BANK39  BANK40  BANK41  BANK42  BANK43  BANK44  BANK45  BANK4
      +6  BANK47  BANK48  BANK49  BANK50  BANK51  BANK52  BANK53  BANK54  BANK55
  2376 ;;      Params:         0       3       0       0       0       0       0       0       0       0       0       0       
      +0       0       0       0       0       0       0       0       0       0       0       0       0       0       0       
      +0       0       0       0       0       0       0       0       0       0       0       0       0       0       0       
      +0       0       0       0       0       0       0       0       0       0
  2377 ;;      Locals:         0       0       0       0       0       0       0       0       0       0       0       0       
      +0       0       0       0       0       0       0       0       0       0       0       0       0       0       0       
      +0       0       0       0       0       0       0       0       0       0       0       0       0       0       0       
      +0       0       0       0       0       0       0       0       0       0
  2378 ;;      Temps:          0       0       0       0       0       0       0       0       0       0       0       0       
      +0       0       0       0       0       0       0       0       0       0       0       0       0       0       0       
      +0       0       0       0       0       0       0       0       0       0       0       0       0       0       0       
      +0       0       0       0       0       0       0       0       0       0
  2379 ;;      Totals:         0       3       0       0       0       0       0       0       0       0       0       0       
      +0       0       0       0       0       0       0       0       0       0       0       0       0       0       0       
      +0       0       0       0       0       0       0       0       0       0       0       0       0       0       0       
      +0       0       0       0       0       0       0       0       0       0
  2380 ;;Total ram usage:        3 bytes
  2381 ;; Hardware stack levels used: 1
  2382 ;; Hardware stack levels required when called: 12
  2383 ;; This function calls:
  2384 ;;		Nothing
  2385 ;; This function is called by:
  2386 ;;		_ADC_Initialize
  2387 ;; This function uses a non-reentrant model
  2388 ;;
  2389                           
  2390                           	psect	text16
  2391  004944                     __ptext16:
  2392                           	callstack 0
  2393  004944                     _ADC_SetContext1ThresholdInterruptHandler:
  2394                           	callstack 113
  2395  004944                     
  2396                           ;mcc_generated_files/adc.c: 725: void ADC_SetContext1ThresholdInterruptHandler(void (* I
      +                          nterruptHandler)(void));mcc_generated_files/adc.c: 726: {;mcc_generated_files/adc.c: 727
      +                          :     ADC_Context1Thereshld_ISR = InterruptHandler;
  2397  004944  C5BB  F5B0         	movff	ADC_SetContext1ThresholdInterruptHandler@InterruptHandler,_ADC_Context1Thereshld_
      +                          ISR
  2398  004948  C5BC  F5B1         	movff	ADC_SetContext1ThresholdInterruptHandler@InterruptHandler+1,_ADC_Context1Thereshl
      +                          d_ISR+1
  2399  00494C  C5BD  F5B2         	movff	ADC_SetContext1ThresholdInterruptHandler@InterruptHandler+2,_ADC_Context1Thereshl
      +                          d_ISR+2
  2400  004950  0012               	return		;funcret
  2401  004952                     __end_of_ADC_SetContext1ThresholdInterruptHandler:
  2402                           	callstack 0
  2403                           
  2404 ;; *************** function _ADC_SetActiveClockTuningInterruptHandler *****************
  2405 ;; Defined at:
  2406 ;;		line 745 in file "mcc_generated_files/adc.c"
  2407 ;; Parameters:    Size  Location     Type
  2408 ;;  InterruptHan    3    5[BANK5 ] PTR FTN()void 
  2409 ;;		 -> ADC_DefaultActiveClockTuning_ISR(1), 
  2410 ;; Auto vars:     Size  Location     Type
  2411 ;;		None
  2412 ;; Return value:  Size  Location     Type
  2413 ;;                  1    wreg      void 
  2414 ;; Registers used:
  2415 ;;		wreg, status,2, status,0
  2416 ;; Tracked objects:
  2417 ;;		On entry : 0/0
  2418 ;;		On exit  : 0/0
  2419 ;;		Unchanged: 0/0
  2420 ;; Data sizes:     COMRAM   BANK5   BANK6   BANK7   BANK8   BANK9  BANK10  BANK11  BANK12  BANK13  BANK14  BANK15  BANK1
      +6  BANK17  BANK18  BANK19  BANK20  BANK21  BANK22  BANK23  BANK24  BANK25  BANK26  BANK27  BANK28  BANK29  BANK30  BANK3
      +1  BANK32  BANK33  BANK34  BANK35  BANK36  BANK37  BANK38  BANK39  BANK40  BANK41  BANK42  BANK43  BANK44  BANK45  BANK4
      +6  BANK47  BANK48  BANK49  BANK50  BANK51  BANK52  BANK53  BANK54  BANK55
  2421 ;;      Params:         0       3       0       0       0       0       0       0       0       0       0       0       
      +0       0       0       0       0       0       0       0       0       0       0       0       0       0       0       
      +0       0       0       0       0       0       0       0       0       0       0       0       0       0       0       
      +0       0       0       0       0       0       0       0       0       0
  2422 ;;      Locals:         0       0       0       0       0       0       0       0       0       0       0       0       
      +0       0       0       0       0       0       0       0       0       0       0       0       0       0       0       
      +0       0       0       0       0       0       0       0       0       0       0       0       0       0       0       
      +0       0       0       0       0       0       0       0       0       0
  2423 ;;      Temps:          0       0       0       0       0       0       0       0       0       0       0       0       
      +0       0       0       0       0       0       0       0       0       0       0       0       0       0       0       
      +0       0       0       0       0       0       0       0       0       0       0       0       0       0       0       
      +0       0       0       0       0       0       0       0       0       0
  2424 ;;      Totals:         0       3       0       0       0       0       0       0       0       0       0       0       
      +0       0       0       0       0       0       0       0       0       0       0       0       0       0       0       
      +0       0       0       0       0       0       0       0       0       0       0       0       0       0       0       
      +0       0       0       0       0       0       0       0       0       0
  2425 ;;Total ram usage:        3 bytes
  2426 ;; Hardware stack levels used: 1
  2427 ;; Hardware stack levels required when called: 12
  2428 ;; This function calls:
  2429 ;;		Nothing
  2430 ;; This function is called by:
  2431 ;;		_ADC_Initialize
  2432 ;; This function uses a non-reentrant model
  2433 ;;
  2434                           
  2435                           	psect	text17
  2436  004952                     __ptext17:
  2437                           	callstack 0
  2438  004952                     _ADC_SetActiveClockTuningInterruptHandler:
  2439                           	callstack 113
  2440  004952                     
  2441                           ;mcc_generated_files/adc.c: 745: void ADC_SetActiveClockTuningInterruptHandler(void (* I
      +                          nterruptHandler)(void));mcc_generated_files/adc.c: 746: {;mcc_generated_files/adc.c: 747
      +                          :     ADC_ActiveClockTuning_ISR = InterruptHandler;
  2442  004952  C5BB  F5A4         	movff	ADC_SetActiveClockTuningInterruptHandler@InterruptHandler,_ADC_ActiveClockTuning_
      +                          ISR
  2443  004956  C5BC  F5A5         	movff	ADC_SetActiveClockTuningInterruptHandler@InterruptHandler+1,_ADC_ActiveClockTunin
      +                          g_ISR+1
  2444  00495A  C5BD  F5A6         	movff	ADC_SetActiveClockTuningInterruptHandler@InterruptHandler+2,_ADC_ActiveClockTunin
      +                          g_ISR+2
  2445  00495E  0012               	return		;funcret
  2446  004960                     __end_of_ADC_SetActiveClockTuningInterruptHandler:
  2447                           	callstack 0
  2448                           
  2449 ;; *************** function _ADC_SetADIInterruptHandler *****************
  2450 ;; Defined at:
  2451 ;;		line 720 in file "mcc_generated_files/adc.c"
  2452 ;; Parameters:    Size  Location     Type
  2453 ;;  InterruptHan    3    5[BANK5 ] PTR FTN()void 
  2454 ;;		 -> ADC_DefaultADI_ISR(1), 
  2455 ;; Auto vars:     Size  Location     Type
  2456 ;;		None
  2457 ;; Return value:  Size  Location     Type
  2458 ;;                  1    wreg      void 
  2459 ;; Registers used:
  2460 ;;		wreg, status,2, status,0
  2461 ;; Tracked objects:
  2462 ;;		On entry : 0/0
  2463 ;;		On exit  : 0/0
  2464 ;;		Unchanged: 0/0
  2465 ;; Data sizes:     COMRAM   BANK5   BANK6   BANK7   BANK8   BANK9  BANK10  BANK11  BANK12  BANK13  BANK14  BANK15  BANK1
      +6  BANK17  BANK18  BANK19  BANK20  BANK21  BANK22  BANK23  BANK24  BANK25  BANK26  BANK27  BANK28  BANK29  BANK30  BANK3
      +1  BANK32  BANK33  BANK34  BANK35  BANK36  BANK37  BANK38  BANK39  BANK40  BANK41  BANK42  BANK43  BANK44  BANK45  BANK4
      +6  BANK47  BANK48  BANK49  BANK50  BANK51  BANK52  BANK53  BANK54  BANK55
  2466 ;;      Params:         0       3       0       0       0       0       0       0       0       0       0       0       
      +0       0       0       0       0       0       0       0       0       0       0       0       0       0       0       
      +0       0       0       0       0       0       0       0       0       0       0       0       0       0       0       
      +0       0       0       0       0       0       0       0       0       0
  2467 ;;      Locals:         0       0       0       0       0       0       0       0       0       0       0       0       
      +0       0       0       0       0       0       0       0       0       0       0       0       0       0       0       
      +0       0       0       0       0       0       0       0       0       0       0       0       0       0       0       
      +0       0       0       0       0       0       0       0       0       0
  2468 ;;      Temps:          0       0       0       0       0       0       0       0       0       0       0       0       
      +0       0       0       0       0       0       0       0       0       0       0       0       0       0       0       
      +0       0       0       0       0       0       0       0       0       0       0       0       0       0       0       
      +0       0       0       0       0       0       0       0       0       0
  2469 ;;      Totals:         0       3       0       0       0       0       0       0       0       0       0       0       
      +0       0       0       0       0       0       0       0       0       0       0       0       0       0       0       
      +0       0       0       0       0       0       0       0       0       0       0       0       0       0       0       
      +0       0       0       0       0       0       0       0       0       0
  2470 ;;Total ram usage:        3 bytes
  2471 ;; Hardware stack levels used: 1
  2472 ;; Hardware stack levels required when called: 12
  2473 ;; This function calls:
  2474 ;;		Nothing
  2475 ;; This function is called by:
  2476 ;;		_ADC_Initialize
  2477 ;; This function uses a non-reentrant model
  2478 ;;
  2479                           
  2480                           	psect	text18
  2481  004960                     __ptext18:
  2482                           	callstack 0
  2483  004960                     _ADC_SetADIInterruptHandler:
  2484                           	callstack 113
  2485  004960                     
  2486                           ;mcc_generated_files/adc.c: 720: void ADC_SetADIInterruptHandler(void (* InterruptHandle
      +                          r)(void));mcc_generated_files/adc.c: 721: {;mcc_generated_files/adc.c: 722:     ADC_Conv
      +                          ersionComplete_ISR = InterruptHandler;
  2487  004960  C5BB  F5B3         	movff	ADC_SetADIInterruptHandler@InterruptHandler,_ADC_ConversionComplete_ISR
  2488  004964  C5BC  F5B4         	movff	ADC_SetADIInterruptHandler@InterruptHandler+1,_ADC_ConversionComplete_ISR+1
  2489  004968  C5BD  F5B5         	movff	ADC_SetADIInterruptHandler@InterruptHandler+2,_ADC_ConversionComplete_ISR+2
  2490  00496C  0012               	return		;funcret
  2491  00496E                     __end_of_ADC_SetADIInterruptHandler:
  2492                           	callstack 0
  2493                           
  2494 ;; *************** function _ADC_SelectContext *****************
  2495 ;; Defined at:
  2496 ;;		line 457 in file "mcc_generated_files/adc.c"
  2497 ;; Parameters:    Size  Location     Type
  2498 ;;  context         1    wreg     enum E22872
  2499 ;; Auto vars:     Size  Location     Type
  2500 ;;  context         1    5[BANK5 ] enum E22872
  2501 ;; Return value:  Size  Location     Type
  2502 ;;                  1    wreg      void 
  2503 ;; Registers used:
  2504 ;;		wreg
  2505 ;; Tracked objects:
  2506 ;;		On entry : 0/0
  2507 ;;		On exit  : 0/0
  2508 ;;		Unchanged: 0/0
  2509 ;; Data sizes:     COMRAM   BANK5   BANK6   BANK7   BANK8   BANK9  BANK10  BANK11  BANK12  BANK13  BANK14  BANK15  BANK1
      +6  BANK17  BANK18  BANK19  BANK20  BANK21  BANK22  BANK23  BANK24  BANK25  BANK26  BANK27  BANK28  BANK29  BANK30  BANK3
      +1  BANK32  BANK33  BANK34  BANK35  BANK36  BANK37  BANK38  BANK39  BANK40  BANK41  BANK42  BANK43  BANK44  BANK45  BANK4
      +6  BANK47  BANK48  BANK49  BANK50  BANK51  BANK52  BANK53  BANK54  BANK55
  2510 ;;      Params:         0       0       0       0       0       0       0       0       0       0       0       0       
      +0       0       0       0       0       0       0       0       0       0       0       0       0       0       0       
      +0       0       0       0       0       0       0       0       0       0       0       0       0       0       0       
      +0       0       0       0       0       0       0       0       0       0
  2511 ;;      Locals:         0       1       0       0       0       0       0       0       0       0       0       0       
      +0       0       0       0       0       0       0       0       0       0       0       0       0       0       0       
      +0       0       0       0       0       0       0       0       0       0       0       0       0       0       0       
      +0       0       0       0       0       0       0       0       0       0
  2512 ;;      Temps:          0       0       0       0       0       0       0       0       0       0       0       0       
      +0       0       0       0       0       0       0       0       0       0       0       0       0       0       0       
      +0       0       0       0       0       0       0       0       0       0       0       0       0       0       0       
      +0       0       0       0       0       0       0       0       0       0
  2513 ;;      Totals:         0       1       0       0       0       0       0       0       0       0       0       0       
      +0       0       0       0       0       0       0       0       0       0       0       0       0       0       0       
      +0       0       0       0       0       0       0       0       0       0       0       0       0       0       0       
      +0       0       0       0       0       0       0       0       0       0
  2514 ;;Total ram usage:        1 bytes
  2515 ;; Hardware stack levels used: 1
  2516 ;; Hardware stack levels required when called: 12
  2517 ;; This function calls:
  2518 ;;		Nothing
  2519 ;; This function is called by:
  2520 ;;		_main
  2521 ;; This function uses a non-reentrant model
  2522 ;;
  2523                           
  2524                           	psect	text19
  2525  00496E                     __ptext19:
  2526                           	callstack 0
  2527  00496E                     _ADC_SelectContext:
  2528                           	callstack 115
  2529                           
  2530                           ;incstack = 0
  2531                           ;ADC_SelectContext@context stored from wreg
  2532  00496E  0105               	movlb	5	; () banked
  2533  004970  6FBB               	movwf	ADC_SelectContext@context& (0+255),b
  2534  004972                     
  2535                           ;mcc_generated_files/adc.c: 457: __attribute__((inline)) void ADC_SelectContext(ADC_cont
      +                          ext_t context);mcc_generated_files/adc.c: 458: {;mcc_generated_files/adc.c: 459:     ADC
      +                          TX = context;
  2536  004972  0061  F6EC  F3FB   	movff	ADC_SelectContext@context,1019	;volatile
  2537  004978  0012               	return		;funcret
  2538  00497A                     __end_of_ADC_SelectContext:
  2539                           	callstack 0
  2540                           
  2541 ;; *************** function _ADC_EnableChannelSequencer *****************
  2542 ;; Defined at:
  2543 ;;		line 442 in file "mcc_generated_files/adc.c"
  2544 ;; Parameters:    Size  Location     Type
  2545 ;;		None
  2546 ;; Auto vars:     Size  Location     Type
  2547 ;;		None
  2548 ;; Return value:  Size  Location     Type
  2549 ;;                  1    wreg      void 
  2550 ;; Registers used:
  2551 ;;		None
  2552 ;; Tracked objects:
  2553 ;;		On entry : 0/0
  2554 ;;		On exit  : 0/0
  2555 ;;		Unchanged: 0/0
  2556 ;; Data sizes:     COMRAM   BANK5   BANK6   BANK7   BANK8   BANK9  BANK10  BANK11  BANK12  BANK13  BANK14  BANK15  BANK1
      +6  BANK17  BANK18  BANK19  BANK20  BANK21  BANK22  BANK23  BANK24  BANK25  BANK26  BANK27  BANK28  BANK29  BANK30  BANK3
      +1  BANK32  BANK33  BANK34  BANK35  BANK36  BANK37  BANK38  BANK39  BANK40  BANK41  BANK42  BANK43  BANK44  BANK45  BANK4
      +6  BANK47  BANK48  BANK49  BANK50  BANK51  BANK52  BANK53  BANK54  BANK55
  2557 ;;      Params:         0       0       0       0       0       0       0       0       0       0       0       0       
      +0       0       0       0       0       0       0       0       0       0       0       0       0       0       0       
      +0       0       0       0       0       0       0       0       0       0       0       0       0       0       0       
      +0       0       0       0       0       0       0       0       0       0
  2558 ;;      Locals:         0       0       0       0       0       0       0       0       0       0       0       0       
      +0       0       0       0       0       0       0       0       0       0       0       0       0       0       0       
      +0       0       0       0       0       0       0       0       0       0       0       0       0       0       0       
      +0       0       0       0       0       0       0       0       0       0
  2559 ;;      Temps:          0       0       0       0       0       0       0       0       0       0       0       0       
      +0       0       0       0       0       0       0       0       0       0       0       0       0       0       0       
      +0       0       0       0       0       0       0       0       0       0       0       0       0       0       0       
      +0       0       0       0       0       0       0       0       0       0
  2560 ;;      Totals:         0       0       0       0       0       0       0       0       0       0       0       0       
      +0       0       0       0       0       0       0       0       0       0       0       0       0       0       0       
      +0       0       0       0       0       0       0       0       0       0       0       0       0       0       0       
      +0       0       0       0       0       0       0       0       0       0
  2561 ;;Total ram usage:        0 bytes
  2562 ;; Hardware stack levels used: 1
  2563 ;; Hardware stack levels required when called: 12
  2564 ;; This function calls:
  2565 ;;		Nothing
  2566 ;; This function is called by:
  2567 ;;		_main
  2568 ;; This function uses a non-reentrant model
  2569 ;;
  2570                           
  2571                           	psect	text20
  2572  004994                     __ptext20:
  2573                           	callstack 0
  2574  004994                     _ADC_EnableChannelSequencer:
  2575                           	callstack 115
  2576  004994                     
  2577                           ;mcc_generated_files/adc.c: 444:     ADCON0bits.CSEN = 1;
  2578  004994  0103               	movlb	3	; () banked
  2579  004996  8BF3               	bsf	243,5,b	;volatile
  2580  004998                     
  2581                           ; BSR set to: 3
  2582  004998  0012               	return		;funcret
  2583  00499A                     __end_of_ADC_EnableChannelSequencer:
  2584                           	callstack 0
  2585                           
  2586 ;; *************** function _ADC_DisableChannelSequencer *****************
  2587 ;; Defined at:
  2588 ;;		line 447 in file "mcc_generated_files/adc.c"
  2589 ;; Parameters:    Size  Location     Type
  2590 ;;		None
  2591 ;; Auto vars:     Size  Location     Type
  2592 ;;		None
  2593 ;; Return value:  Size  Location     Type
  2594 ;;                  1    wreg      void 
  2595 ;; Registers used:
  2596 ;;		None
  2597 ;; Tracked objects:
  2598 ;;		On entry : 0/0
  2599 ;;		On exit  : 0/0
  2600 ;;		Unchanged: 0/0
  2601 ;; Data sizes:     COMRAM   BANK5   BANK6   BANK7   BANK8   BANK9  BANK10  BANK11  BANK12  BANK13  BANK14  BANK15  BANK1
      +6  BANK17  BANK18  BANK19  BANK20  BANK21  BANK22  BANK23  BANK24  BANK25  BANK26  BANK27  BANK28  BANK29  BANK30  BANK3
      +1  BANK32  BANK33  BANK34  BANK35  BANK36  BANK37  BANK38  BANK39  BANK40  BANK41  BANK42  BANK43  BANK44  BANK45  BANK4
      +6  BANK47  BANK48  BANK49  BANK50  BANK51  BANK52  BANK53  BANK54  BANK55
  2602 ;;      Params:         0       0       0       0       0       0       0       0       0       0       0       0       
      +0       0       0       0       0       0       0       0       0       0       0       0       0       0       0       
      +0       0       0       0       0       0       0       0       0       0       0       0       0       0       0       
      +0       0       0       0       0       0       0       0       0       0
  2603 ;;      Locals:         0       0       0       0       0       0       0       0       0       0       0       0       
      +0       0       0       0       0       0       0       0       0       0       0       0       0       0       0       
      +0       0       0       0       0       0       0       0       0       0       0       0       0       0       0       
      +0       0       0       0       0       0       0       0       0       0
  2604 ;;      Temps:          0       0       0       0       0       0       0       0       0       0       0       0       
      +0       0       0       0       0       0       0       0       0       0       0       0       0       0       0       
      +0       0       0       0       0       0       0       0       0       0       0       0       0       0       0       
      +0       0       0       0       0       0       0       0       0       0
  2605 ;;      Totals:         0       0       0       0       0       0       0       0       0       0       0       0       
      +0       0       0       0       0       0       0       0       0       0       0       0       0       0       0       
      +0       0       0       0       0       0       0       0       0       0       0       0       0       0       0       
      +0       0       0       0       0       0       0       0       0       0
  2606 ;;Total ram usage:        0 bytes
  2607 ;; Hardware stack levels used: 1
  2608 ;; Hardware stack levels required when called: 12
  2609 ;; This function calls:
  2610 ;;		Nothing
  2611 ;; This function is called by:
  2612 ;;		_main
  2613 ;; This function uses a non-reentrant model
  2614 ;;
  2615                           
  2616                           	psect	text21
  2617  00499A                     __ptext21:
  2618                           	callstack 0
  2619  00499A                     _ADC_DisableChannelSequencer:
  2620                           	callstack 115
  2621  00499A                     
  2622                           ;mcc_generated_files/adc.c: 449:     ADCON0bits.CSEN = 0;
  2623  00499A  0103               	movlb	3	; () banked
  2624  00499C  9BF3               	bcf	243,5,b	;volatile
  2625  00499E                     
  2626                           ; BSR set to: 3
  2627  00499E  0012               	return		;funcret
  2628  0049A0                     __end_of_ADC_DisableChannelSequencer:
  2629                           	callstack 0
  2630                           
  2631 ;; *************** function _INTERRUPT_InterruptManager *****************
  2632 ;; Defined at:
  2633 ;;		line 58 in file "mcc_generated_files/interrupt_manager.c"
  2634 ;; Parameters:    Size  Location     Type
  2635 ;;		None
  2636 ;; Auto vars:     Size  Location     Type
  2637 ;;		None
  2638 ;; Return value:  Size  Location     Type
  2639 ;;                  1    wreg      void 
  2640 ;; Registers used:
  2641 ;;		wreg, fsr1l, fsr1h, fsr2l, fsr2h, status,2, status,0, pclath, tosl, tblptrl, tblptrh, tblptru, cstack
  2642 ;; Tracked objects:
  2643 ;;		On entry : 0/0
  2644 ;;		On exit  : 0/0
  2645 ;;		Unchanged: 0/0
  2646 ;; Data sizes:     COMRAM   BANK5   BANK6   BANK7   BANK8   BANK9  BANK10  BANK11  BANK12  BANK13  BANK14  BANK15  BANK1
      +6  BANK17  BANK18  BANK19  BANK20  BANK21  BANK22  BANK23  BANK24  BANK25  BANK26  BANK27  BANK28  BANK29  BANK30  BANK3
      +1  BANK32  BANK33  BANK34  BANK35  BANK36  BANK37  BANK38  BANK39  BANK40  BANK41  BANK42  BANK43  BANK44  BANK45  BANK4
      +6  BANK47  BANK48  BANK49  BANK50  BANK51  BANK52  BANK53  BANK54  BANK55
  2647 ;;      Params:         0       0       0       0       0       0       0       0       0       0       0       0       
      +0       0       0       0       0       0       0       0       0       0       0       0       0       0       0       
      +0       0       0       0       0       0       0       0       0       0       0       0       0       0       0       
      +0       0       0       0       0       0       0       0       0       0
  2648 ;;      Locals:         0       0       0       0       0       0       0       0       0       0       0       0       
      +0       0       0       0       0       0       0       0       0       0       0       0       0       0       0       
      +0       0       0       0       0       0       0       0       0       0       0       0       0       0       0       
      +0       0       0       0       0       0       0       0       0       0
  2649 ;;      Temps:          0       4       0       0       0       0       0       0       0       0       0       0       
      +0       0       0       0       0       0       0       0       0       0       0       0       0       0       0       
      +0       0       0       0       0       0       0       0       0       0       0       0       0       0       0       
      +0       0       0       0       0       0       0       0       0       0
  2650 ;;      Totals:         0       4       0       0       0       0       0       0       0       0       0       0       
      +0       0       0       0       0       0       0       0       0       0       0       0       0       0       0       
      +0       0       0       0       0       0       0       0       0       0       0       0       0       0       0       
      +0       0       0       0       0       0       0       0       0       0
  2651 ;;Total ram usage:        4 bytes
  2652 ;; Hardware stack levels used: 1
  2653 ;; Hardware stack levels required when called: 11
  2654 ;; This function calls:
  2655 ;;		_ADC_ADCH4_ISR
  2656 ;; This function is called by:
  2657 ;;		Interrupt level 2
  2658 ;; This function uses a non-reentrant model
  2659 ;;
  2660                           
  2661                           	psect	text22
  2662  004684                     __ptext22:
  2663                           	callstack 0
  2664  004684                     _INTERRUPT_InterruptManager:
  2665                           	callstack 113
  2666                           
  2667                           ; BSR set to: 3
  2668                           ;incstack = 0
  2669  004684  0061 F3D8  F5B7    	movff	tblptrl,??_INTERRUPT_InterruptManager
  2670  00468A  0061 F3DC  F5B8    	movff	tblptrh,??_INTERRUPT_InterruptManager+1
  2671  004690  0061 F3E0  F5B9    	movff	tblptru,??_INTERRUPT_InterruptManager+2
  2672  004696  0061 F3D4  F5BA    	movff	tablat,??_INTERRUPT_InterruptManager+3
  2673  00469C                     
  2674                           ;mcc_generated_files/interrupt_manager.c: 61:     if(PIE2bits.ADCH4IE == 1 && PIR2bits.A
      +                          DCH4IF == 1)
  2675  00469C  A6A0               	btfss	160,3,c	;volatile
  2676  00469E  EF53  F023         	goto	i2u136_41
  2677  0046A2  EF55  F023         	goto	i2u136_40
  2678  0046A6                     i2u136_41:
  2679  0046A6  EF5E  F023         	goto	i2l18
  2680  0046AA                     i2u136_40:
  2681  0046AA  A6B0               	btfss	176,3,c	;volatile
  2682  0046AC  EF5A  F023         	goto	i2u137_41
  2683  0046B0  EF5C  F023         	goto	i2u137_40
  2684  0046B4                     i2u137_41:
  2685  0046B4  EF5E  F023         	goto	i2l18
  2686  0046B8                     i2u137_40:
  2687  0046B8                     
  2688                           ;mcc_generated_files/interrupt_manager.c: 62:     {;mcc_generated_files/interrupt_manage
      +                          r.c: 63:         ADC_ADCH4_ISR();
  2689  0046B8  ECCA  F023         	call	_ADC_ADCH4_ISR	;wreg free
  2690  0046BC                     i2l18:
  2691  0046BC  0061  F6E8  F4F5   	movff	??_INTERRUPT_InterruptManager+3,tablat
  2692  0046C2  0061  F6E4  F4F8   	movff	??_INTERRUPT_InterruptManager+2,tblptru
  2693  0046C8  0061  F6E0  F4F7   	movff	??_INTERRUPT_InterruptManager+1,tblptrh
  2694  0046CE  0061  F6DC  F4F6   	movff	??_INTERRUPT_InterruptManager,tblptrl
  2695  0046D4  0011               	retfie		f
  2696  0046D6                     __end_of_INTERRUPT_InterruptManager:
  2697                           	callstack 0
  2698                           
  2699 ;; *************** function _ADC_ADCH4_ISR *****************
  2700 ;; Defined at:
  2701 ;;		line 713 in file "mcc_generated_files/adc.c"
  2702 ;; Parameters:    Size  Location     Type
  2703 ;;		None
  2704 ;; Auto vars:     Size  Location     Type
  2705 ;;		None
  2706 ;; Return value:  Size  Location     Type
  2707 ;;                  1    wreg      void 
  2708 ;; Registers used:
  2709 ;;		wreg, fsr1l, fsr1h, fsr2l, fsr2h, status,2, status,0, pclath, tosl, tblptrl, tblptrh, tblptru, cstack
  2710 ;; Tracked objects:
  2711 ;;		On entry : 0/0
  2712 ;;		On exit  : 0/0
  2713 ;;		Unchanged: 0/0
  2714 ;; Data sizes:     COMRAM   BANK5   BANK6   BANK7   BANK8   BANK9  BANK10  BANK11  BANK12  BANK13  BANK14  BANK15  BANK1
      +6  BANK17  BANK18  BANK19  BANK20  BANK21  BANK22  BANK23  BANK24  BANK25  BANK26  BANK27  BANK28  BANK29  BANK30  BANK3
      +1  BANK32  BANK33  BANK34  BANK35  BANK36  BANK37  BANK38  BANK39  BANK40  BANK41  BANK42  BANK43  BANK44  BANK45  BANK4
      +6  BANK47  BANK48  BANK49  BANK50  BANK51  BANK52  BANK53  BANK54  BANK55
  2715 ;;      Params:         0       0       0       0       0       0       0       0       0       0       0       0       
      +0       0       0       0       0       0       0       0       0       0       0       0       0       0       0       
      +0       0       0       0       0       0       0       0       0       0       0       0       0       0       0       
      +0       0       0       0       0       0       0       0       0       0
  2716 ;;      Locals:         0       0       0       0       0       0       0       0       0       0       0       0       
      +0       0       0       0       0       0       0       0       0       0       0       0       0       0       0       
      +0       0       0       0       0       0       0       0       0       0       0       0       0       0       0       
      +0       0       0       0       0       0       0       0       0       0
  2717 ;;      Temps:          0       0       0       0       0       0       0       0       0       0       0       0       
      +0       0       0       0       0       0       0       0       0       0       0       0       0       0       0       
      +0       0       0       0       0       0       0       0       0       0       0       0       0       0       0       
      +0       0       0       0       0       0       0       0       0       0
  2718 ;;      Totals:         0       0       0       0       0       0       0       0       0       0       0       0       
      +0       0       0       0       0       0       0       0       0       0       0       0       0       0       0       
      +0       0       0       0       0       0       0       0       0       0       0       0       0       0       0       
      +0       0       0       0       0       0       0       0       0       0
  2719 ;;Total ram usage:        0 bytes
  2720 ;; Hardware stack levels used: 1
  2721 ;; Hardware stack levels required when called: 10
  2722 ;; This function calls:
  2723 ;;		Absolute function
  2724 ;;		_ADC_DefaultContext4Threshold_ISR
  2725 ;;		_ADC_UserContext4Threshold_ISR
  2726 ;; This function is called by:
  2727 ;;		_INTERRUPT_InterruptManager
  2728 ;; This function uses a non-reentrant model
  2729 ;;
  2730                           
  2731                           	psect	text23
  2732  004794                     __ptext23:
  2733                           	callstack 0
  2734  004794                     _ADC_ADCH4_ISR:
  2735                           	callstack 113
  2736  004794                     
  2737                           ;mcc_generated_files/adc.c: 715:     PIR2bits.ADCH4IF = 0;
  2738  004794  96B0               	bcf	176,3,c	;volatile
  2739  004796                     
  2740                           ;mcc_generated_files/adc.c: 716:     if (ADC_Context4Thereshld_ISR != ((void*)0))
  2741  004796  0105               	movlb	5	; () banked
  2742  004798  51A7               	movf	_ADC_Context4Thereshld_ISR& (0+255),w,b
  2743  00479A  11A8               	iorwf	(_ADC_Context4Thereshld_ISR+1)& (0+255),w,b
  2744  00479C  11A9               	iorwf	(_ADC_Context4Thereshld_ISR+2)& (0+255),w,b
  2745  00479E  B4D8               	btfsc	status,2,c
  2746  0047A0  EFD4  F023         	goto	i2u127_41
  2747  0047A4  EFD6  F023         	goto	i2u127_40
  2748  0047A8                     i2u127_41:
  2749  0047A8  EFE3  F023         	goto	i2l360
  2750  0047AC                     i2u127_40:
  2751  0047AC                     
  2752                           ; BSR set to: 5
  2753                           ;mcc_generated_files/adc.c: 717:         ADC_Context4Thereshld_ISR();
  2754  0047AC  D802               	call	i2u128_48
  2755  0047AE  EFE3  F023         	goto	i2u128_49
  2756  0047B2                     i2u128_48:
  2757  0047B2  0005               	push	
  2758  0047B4  6EFA               	movwf	pclath,c
  2759  0047B6  51A7               	movf	_ADC_Context4Thereshld_ISR& (0+255),w,b
  2760  0047B8  6EFD               	movwf	tosl,c
  2761  0047BA  51A8               	movf	(_ADC_Context4Thereshld_ISR+1)& (0+255),w,b
  2762  0047BC  6EFE               	movwf	tosh,c
  2763  0047BE  51A9               	movf	(_ADC_Context4Thereshld_ISR+2)& (0+255),w,b
  2764  0047C0  6EFF               	movwf	tosu,c
  2765  0047C2  50FA               	movf	pclath,w,c
  2766  0047C4  0012               	return		;indir
  2767  0047C6                     i2u128_49:
  2768  0047C6                     i2l360:
  2769  0047C6  0012               	return		;funcret
  2770  0047C8                     __end_of_ADC_ADCH4_ISR:
  2771                           	callstack 0
  2772                           
  2773 ;; *************** function _ADC_DefaultContext4Threshold_ISR *****************
  2774 ;; Defined at:
  2775 ;;		line 775 in file "mcc_generated_files/adc.c"
  2776 ;; Parameters:    Size  Location     Type
  2777 ;;		None
  2778 ;; Auto vars:     Size  Location     Type
  2779 ;;		None
  2780 ;; Return value:  Size  Location     Type
  2781 ;;                  1    wreg      void 
  2782 ;; Registers used:
  2783 ;;		None
  2784 ;; Tracked objects:
  2785 ;;		On entry : 0/0
  2786 ;;		On exit  : 0/0
  2787 ;;		Unchanged: 0/0
  2788 ;; Data sizes:     COMRAM   BANK5   BANK6   BANK7   BANK8   BANK9  BANK10  BANK11  BANK12  BANK13  BANK14  BANK15  BANK1
      +6  BANK17  BANK18  BANK19  BANK20  BANK21  BANK22  BANK23  BANK24  BANK25  BANK26  BANK27  BANK28  BANK29  BANK30  BANK3
      +1  BANK32  BANK33  BANK34  BANK35  BANK36  BANK37  BANK38  BANK39  BANK40  BANK41  BANK42  BANK43  BANK44  BANK45  BANK4
      +6  BANK47  BANK48  BANK49  BANK50  BANK51  BANK52  BANK53  BANK54  BANK55
  2789 ;;      Params:         0       0       0       0       0       0       0       0       0       0       0       0       
      +0       0       0       0       0       0       0       0       0       0       0       0       0       0       0       
      +0       0       0       0       0       0       0       0       0       0       0       0       0       0       0       
      +0       0       0       0       0       0       0       0       0       0
  2790 ;;      Locals:         0       0       0       0       0       0       0       0       0       0       0       0       
      +0       0       0       0       0       0       0       0       0       0       0       0       0       0       0       
      +0       0       0       0       0       0       0       0       0       0       0       0       0       0       0       
      +0       0       0       0       0       0       0       0       0       0
  2791 ;;      Temps:          0       0       0       0       0       0       0       0       0       0       0       0       
      +0       0       0       0       0       0       0       0       0       0       0       0       0       0       0       
      +0       0       0       0       0       0       0       0       0       0       0       0       0       0       0       
      +0       0       0       0       0       0       0       0       0       0
  2792 ;;      Totals:         0       0       0       0       0       0       0       0       0       0       0       0       
      +0       0       0       0       0       0       0       0       0       0       0       0       0       0       0       
      +0       0       0       0       0       0       0       0       0       0       0       0       0       0       0       
      +0       0       0       0       0       0       0       0       0       0
  2793 ;;Total ram usage:        0 bytes
  2794 ;; Hardware stack levels used: 1
  2795 ;; This function calls:
  2796 ;;		Nothing
  2797 ;; This function is called by:
  2798 ;;		_ADC_Initialize
  2799 ;;		_ADC_ADCH4_ISR
  2800 ;; This function uses a non-reentrant model
  2801 ;;
  2802                           
  2803                           	psect	text24
  2804  0049B0                     __ptext24:
  2805                           	callstack 0
  2806  0049B0                     _ADC_DefaultContext4Threshold_ISR:
  2807                           	callstack 122
  2808  0049B0  0012               	return		;funcret
  2809  0049B2                     __end_of_ADC_DefaultContext4Threshold_ISR:
  2810                           	callstack 0
  2811                           
  2812 ;; *************** function _ADC_UserContext4Threshold_ISR *****************
  2813 ;; Defined at:
  2814 ;;		line 46 in file "main.c"
  2815 ;; Parameters:    Size  Location     Type
  2816 ;;		None
  2817 ;; Auto vars:     Size  Location     Type
  2818 ;;		None
  2819 ;; Return value:  Size  Location     Type
  2820 ;;                  1    wreg      void 
  2821 ;; Registers used:
  2822 ;;		wreg, fsr1l, fsr1h, fsr2l, fsr2h, status,2, status,0, tblptrl, tblptrh, tblptru, cstack
  2823 ;; Tracked objects:
  2824 ;;		On entry : 0/0
  2825 ;;		On exit  : 0/0
  2826 ;;		Unchanged: 0/0
  2827 ;; Data sizes:     COMRAM   BANK5   BANK6   BANK7   BANK8   BANK9  BANK10  BANK11  BANK12  BANK13  BANK14  BANK15  BANK1
      +6  BANK17  BANK18  BANK19  BANK20  BANK21  BANK22  BANK23  BANK24  BANK25  BANK26  BANK27  BANK28  BANK29  BANK30  BANK3
      +1  BANK32  BANK33  BANK34  BANK35  BANK36  BANK37  BANK38  BANK39  BANK40  BANK41  BANK42  BANK43  BANK44  BANK45  BANK4
      +6  BANK47  BANK48  BANK49  BANK50  BANK51  BANK52  BANK53  BANK54  BANK55
  2828 ;;      Params:         0       0       0       0       0       0       0       0       0       0       0       0       
      +0       0       0       0       0       0       0       0       0       0       0       0       0       0       0       
      +0       0       0       0       0       0       0       0       0       0       0       0       0       0       0       
      +0       0       0       0       0       0       0       0       0       0
  2829 ;;      Locals:         0       0       0       0       0       0       0       0       0       0       0       0       
      +0       0       0       0       0       0       0       0       0       0       0       0       0       0       0       
      +0       0       0       0       0       0       0       0       0       0       0       0       0       0       0       
      +0       0       0       0       0       0       0       0       0       0
  2830 ;;      Temps:          0       1       0       0       0       0       0       0       0       0       0       0       
      +0       0       0       0       0       0       0       0       0       0       0       0       0       0       0       
      +0       0       0       0       0       0       0       0       0       0       0       0       0       0       0       
      +0       0       0       0       0       0       0       0       0       0
  2831 ;;      Totals:         0       1       0       0       0       0       0       0       0       0       0       0       
      +0       0       0       0       0       0       0       0       0       0       0       0       0       0       0       
      +0       0       0       0       0       0       0       0       0       0       0       0       0       0       0       
      +0       0       0       0       0       0       0       0       0       0
  2832 ;;Total ram usage:        1 bytes
  2833 ;; Hardware stack levels used: 1
  2834 ;; Hardware stack levels required when called: 9
  2835 ;; This function calls:
  2836 ;;		_ADC_GetConversionResult
  2837 ;;		_printf
  2838 ;;		i2_ADC_DisableChannelSequencer
  2839 ;;		i2_ADC_EnableChannelSequencer
  2840 ;;		i2_ADC_SelectContext
  2841 ;; This function is called by:
  2842 ;;		_main
  2843 ;;		_ADC_ADCH4_ISR
  2844 ;; This function uses a non-reentrant model
  2845 ;;
  2846                           
  2847                           	psect	text25
  2848  004256                     __ptext25:
  2849                           	callstack 0
  2850  004256                     _ADC_UserContext4Threshold_ISR:
  2851                           	callstack 113
  2852  004256                     
  2853                           ;main.c: 51:     static adc_result_t convertedValue1, convertedValue2, convertedValue3, 
      +                          convertedValue4;;main.c: 53:     ADC_SelectContext(0);
  2854  004256  0E00               	movlw	0
  2855  004258  ECBD  F024         	call	i2_ADC_SelectContext
  2856  00425C                     
  2857                           ;main.c: 54:     convertedValue1 = ADC_GetConversionResult();
  2858  00425C  EC6D  F024         	call	_ADC_GetConversionResult	;wreg free
  2859  004260  C501  F581         	movff	?_ADC_GetConversionResult,ADC_UserContext4Threshold_ISR@convertedValue1
  2860  004264  C502  F582         	movff	?_ADC_GetConversionResult+1,ADC_UserContext4Threshold_ISR@convertedValue1+1
  2861  004268                     
  2862                           ;main.c: 55:     if (ADPCH == channel_ANA1)
  2863  004268  0103               	movlb	3	; () banked
  2864  00426A  05EC               	decf	236,w,b	;volatile
  2865  00426C  A4D8               	btfss	status,2,c
  2866  00426E  EF3B  F021         	goto	i2u122_41
  2867  004272  EF3D  F021         	goto	i2u122_40
  2868  004276                     i2u122_41:
  2869  004276  EF41  F021         	goto	i2l2552
  2870  00427A                     i2u122_40:
  2871  00427A                     
  2872                           ; BSR set to: 3
  2873                           ;main.c: 56:     {;main.c: 57:         ADPCH = channel_ANA0;
  2874  00427A  0E00               	movlw	0
  2875  00427C  6FEC               	movwf	236,b	;volatile
  2876                           
  2877                           ;main.c: 58:     }
  2878  00427E  EF43  F021         	goto	i2l2554
  2879  004282                     i2l2552:
  2880                           
  2881                           ; BSR set to: 3
  2882                           ;main.c: 60:     {;main.c: 61:         ADPCH = channel_ANA1;
  2883  004282  0E01               	movlw	1
  2884  004284  6FEC               	movwf	236,b	;volatile
  2885  004286                     i2l2554:
  2886                           
  2887                           ; BSR set to: 3
  2888                           ;main.c: 64:     ADC_SelectContext(1);
  2889  004286  0E01               	movlw	1
  2890  004288  ECBD  F024         	call	i2_ADC_SelectContext
  2891  00428C                     
  2892                           ;main.c: 65:     convertedValue2 = ADC_GetConversionResult();
  2893  00428C  EC6D  F024         	call	_ADC_GetConversionResult	;wreg free
  2894  004290  C501  F57F         	movff	?_ADC_GetConversionResult,ADC_UserContext4Threshold_ISR@convertedValue2
  2895  004294  C502  F580         	movff	?_ADC_GetConversionResult+1,ADC_UserContext4Threshold_ISR@convertedValue2+1
  2896  004298                     
  2897                           ;main.c: 66:     if (ADPCH == channel_ANA1)
  2898  004298  0103               	movlb	3	; () banked
  2899  00429A  05EC               	decf	236,w,b	;volatile
  2900  00429C  A4D8               	btfss	status,2,c
  2901  00429E  EF53  F021         	goto	i2u123_41
  2902  0042A2  EF55  F021         	goto	i2u123_40
  2903  0042A6                     i2u123_41:
  2904  0042A6  EF59  F021         	goto	i2l2562
  2905  0042AA                     i2u123_40:
  2906  0042AA                     
  2907                           ; BSR set to: 3
  2908                           ;main.c: 67:     {;main.c: 68:         ADPCH = channel_ANA0;
  2909  0042AA  0E00               	movlw	0
  2910  0042AC  6FEC               	movwf	236,b	;volatile
  2911                           
  2912                           ;main.c: 69:     }
  2913  0042AE  EF5B  F021         	goto	i2l2564
  2914  0042B2                     i2l2562:
  2915                           
  2916                           ; BSR set to: 3
  2917                           ;main.c: 71:     {;main.c: 72:         ADPCH = channel_ANA1;
  2918  0042B2  0E01               	movlw	1
  2919  0042B4  6FEC               	movwf	236,b	;volatile
  2920  0042B6                     i2l2564:
  2921                           
  2922                           ; BSR set to: 3
  2923                           ;main.c: 75:     ADC_SelectContext(2);
  2924  0042B6  0E02               	movlw	2
  2925  0042B8  ECBD  F024         	call	i2_ADC_SelectContext
  2926  0042BC                     
  2927                           ;main.c: 76:     convertedValue3 = ADC_GetConversionResult();
  2928  0042BC  EC6D  F024         	call	_ADC_GetConversionResult	;wreg free
  2929  0042C0  C501  F57D         	movff	?_ADC_GetConversionResult,ADC_UserContext4Threshold_ISR@convertedValue3
  2930  0042C4  C502  F57E         	movff	?_ADC_GetConversionResult+1,ADC_UserContext4Threshold_ISR@convertedValue3+1
  2931  0042C8                     
  2932                           ;main.c: 77:     if (ADPCH == channel_ANA1)
  2933  0042C8  0103               	movlb	3	; () banked
  2934  0042CA  05EC               	decf	236,w,b	;volatile
  2935  0042CC  A4D8               	btfss	status,2,c
  2936  0042CE  EF6B  F021         	goto	i2u124_41
  2937  0042D2  EF6D  F021         	goto	i2u124_40
  2938  0042D6                     i2u124_41:
  2939  0042D6  EF71  F021         	goto	i2l2572
  2940  0042DA                     i2u124_40:
  2941  0042DA                     
  2942                           ; BSR set to: 3
  2943                           ;main.c: 78:     {;main.c: 79:         ADPCH = channel_ANA0;
  2944  0042DA  0E00               	movlw	0
  2945  0042DC  6FEC               	movwf	236,b	;volatile
  2946                           
  2947                           ;main.c: 80:     }
  2948  0042DE  EF73  F021         	goto	i2l2574
  2949  0042E2                     i2l2572:
  2950                           
  2951                           ; BSR set to: 3
  2952                           ;main.c: 82:     {;main.c: 83:         ADPCH = channel_ANA1;
  2953  0042E2  0E01               	movlw	1
  2954  0042E4  6FEC               	movwf	236,b	;volatile
  2955  0042E6                     i2l2574:
  2956                           
  2957                           ; BSR set to: 3
  2958                           ;main.c: 86:     ADC_SelectContext(3);
  2959  0042E6  0E03               	movlw	3
  2960  0042E8  ECBD  F024         	call	i2_ADC_SelectContext
  2961  0042EC                     
  2962                           ;main.c: 87:     convertedValue4 = ADC_GetConversionResult();
  2963  0042EC  EC6D  F024         	call	_ADC_GetConversionResult	;wreg free
  2964  0042F0  C501  F57B         	movff	?_ADC_GetConversionResult,ADC_UserContext4Threshold_ISR@convertedValue4
  2965  0042F4  C502  F57C         	movff	?_ADC_GetConversionResult+1,ADC_UserContext4Threshold_ISR@convertedValue4+1
  2966  0042F8                     
  2967                           ;main.c: 88:     if (ADPCH == channel_ANA1)
  2968  0042F8  0103               	movlb	3	; () banked
  2969  0042FA  05EC               	decf	236,w,b	;volatile
  2970  0042FC  A4D8               	btfss	status,2,c
  2971  0042FE  EF83  F021         	goto	i2u125_41
  2972  004302  EF85  F021         	goto	i2u125_40
  2973  004306                     i2u125_41:
  2974  004306  EF89  F021         	goto	i2l2582
  2975  00430A                     i2u125_40:
  2976  00430A                     
  2977                           ; BSR set to: 3
  2978                           ;main.c: 89:     {;main.c: 90:         ADPCH = channel_ANA0;
  2979  00430A  0E00               	movlw	0
  2980  00430C  6FEC               	movwf	236,b	;volatile
  2981                           
  2982                           ;main.c: 91:     }
  2983  00430E  EF8B  F021         	goto	i2l2584
  2984  004312                     i2l2582:
  2985                           
  2986                           ; BSR set to: 3
  2987                           ;main.c: 93:     {;main.c: 94:         ADPCH = channel_ANA1;
  2988  004312  0E01               	movlw	1
  2989  004314  6FEC               	movwf	236,b	;volatile
  2990  004316                     i2l2584:
  2991                           
  2992                           ; BSR set to: 3
  2993                           ;main.c: 99:     ADC_DisableChannelSequencer();
  2994  004316  ECD3  F024         	call	i2_ADC_DisableChannelSequencer	;wreg free
  2995  00431A                     
  2996                           ;main.c: 100:     ADC_SelectContext(CONTEXT_1);
  2997  00431A  0E00               	movlw	0
  2998  00431C  ECBD  F024         	call	i2_ADC_SelectContext
  2999  004320                     
  3000                           ;main.c: 101:     ADC_EnableChannelSequencer();
  3001  004320  ECD0  F024         	call	i2_ADC_EnableChannelSequencer	;wreg free
  3002  004324  B6C3               	btfsc	195,3,c	;volatile
  3003  004326  EF97  F021         	goto	i2u126_41
  3004  00432A  EF9A  F021         	goto	i2u126_40
  3005  00432E                     i2u126_41:
  3006  00432E  0E01               	movlw	1
  3007  004330  EF9B  F021         	goto	i2u126_46
  3008  004334                     i2u126_40:
  3009  004334  0E00               	movlw	0
  3010  004336                     i2u126_46:
  3011  004336  0AFF               	xorlw	255
  3012  004338  0105               	movlb	5	; () banked
  3013  00433A  6FB6               	movwf	??_ADC_UserContext4Threshold_ISR& (0+255),b
  3014  00433C  47B6               	rlncf	??_ADC_UserContext4Threshold_ISR& (0+255),f,b
  3015  00433E  47B6               	rlncf	??_ADC_UserContext4Threshold_ISR& (0+255),f,b
  3016  004340  47B6               	rlncf	??_ADC_UserContext4Threshold_ISR& (0+255),f,b
  3017  004342  50C3               	movf	195,w,c	;volatile
  3018  004344  19B6               	xorwf	??_ADC_UserContext4Threshold_ISR& (0+255),w,b
  3019  004346  0BF7               	andlw	-9
  3020  004348  19B6               	xorwf	??_ADC_UserContext4Threshold_ISR& (0+255),w,b
  3021  00434A  6EC3               	movwf	195,c	;volatile
  3022  00434C                     
  3023                           ; BSR set to: 5
  3024                           ;main.c: 106:     printf("Contex1 AN: %d\r\n", convertedValue1);
  3025  00434C  0E01               	movlw	low STR_1
  3026  00434E  6E5A               	movwf	printf@fmt^(0+1280),c
  3027  004350  0E38               	movlw	high STR_1
  3028  004352  6E5B               	movwf	(printf@fmt+1)^(0+1280),c
  3029  004354  C581  F55C         	movff	ADC_UserContext4Threshold_ISR@convertedValue1,?_printf+2
  3030  004358  C582  F55D         	movff	ADC_UserContext4Threshold_ISR@convertedValue1+1,?_printf+3
  3031  00435C  EC24  F024         	call	_printf	;wreg free
  3032  004360                     
  3033                           ;main.c: 107:     printf("Contex2 AN: %d\r\n", convertedValue2);
  3034  004360  0E12               	movlw	low STR_2
  3035  004362  6E5A               	movwf	printf@fmt^(0+1280),c
  3036  004364  0E38               	movlw	high STR_2
  3037  004366  6E5B               	movwf	(printf@fmt+1)^(0+1280),c
  3038  004368  C57F  F55C         	movff	ADC_UserContext4Threshold_ISR@convertedValue2,?_printf+2
  3039  00436C  C580  F55D         	movff	ADC_UserContext4Threshold_ISR@convertedValue2+1,?_printf+3
  3040  004370  EC24  F024         	call	_printf	;wreg free
  3041  004374                     
  3042                           ;main.c: 108:     printf("Contex3 AN: %d\r\n", convertedValue3);
  3043  004374  0E23               	movlw	low STR_3
  3044  004376  6E5A               	movwf	printf@fmt^(0+1280),c
  3045  004378  0E38               	movlw	high STR_3
  3046  00437A  6E5B               	movwf	(printf@fmt+1)^(0+1280),c
  3047  00437C  C57D  F55C         	movff	ADC_UserContext4Threshold_ISR@convertedValue3,?_printf+2
  3048  004380  C57E  F55D         	movff	ADC_UserContext4Threshold_ISR@convertedValue3+1,?_printf+3
  3049  004384  EC24  F024         	call	_printf	;wreg free
  3050  004388                     
  3051                           ;main.c: 109:     printf("Contex4 AN: %d\r\n", convertedValue4);
  3052  004388  0E34               	movlw	low STR_4
  3053  00438A  6E5A               	movwf	printf@fmt^(0+1280),c
  3054  00438C  0E38               	movlw	high STR_4
  3055  00438E  6E5B               	movwf	(printf@fmt+1)^(0+1280),c
  3056  004390  C57B  F55C         	movff	ADC_UserContext4Threshold_ISR@convertedValue4,?_printf+2
  3057  004394  C57C  F55D         	movff	ADC_UserContext4Threshold_ISR@convertedValue4+1,?_printf+3
  3058  004398  EC24  F024         	call	_printf	;wreg free
  3059  00439C                     
  3060                           ;main.c: 110:     printf("\r\n");
  3061  00439C  0E0F               	movlw	low (STR_1+14)
  3062  00439E  6E5A               	movwf	printf@fmt^(0+1280),c
  3063  0043A0  0E38               	movlw	high (STR_1+14)
  3064  0043A2  6E5B               	movwf	(printf@fmt+1)^(0+1280),c
  3065  0043A4  EC24  F024         	call	_printf	;wreg free
  3066  0043A8  0012               	return		;funcret
  3067  0043AA                     __end_of_ADC_UserContext4Threshold_ISR:
  3068                           	callstack 0
  3069                           
  3070 ;; *************** function i2_ADC_SelectContext *****************
  3071 ;; Defined at:
  3072 ;;		line 457 in file "mcc_generated_files/adc.c"
  3073 ;; Parameters:    Size  Location     Type
  3074 ;;  context         1    wreg     enum E22872
  3075 ;; Auto vars:     Size  Location     Type
  3076 ;;  context         1    0[COMRAM] enum E22872
  3077 ;; Return value:  Size  Location     Type
  3078 ;;                  1    wreg      void 
  3079 ;; Registers used:
  3080 ;;		wreg
  3081 ;; Tracked objects:
  3082 ;;		On entry : 0/0
  3083 ;;		On exit  : 0/0
  3084 ;;		Unchanged: 0/0
  3085 ;; Data sizes:     COMRAM   BANK5   BANK6   BANK7   BANK8   BANK9  BANK10  BANK11  BANK12  BANK13  BANK14  BANK15  BANK1
      +6  BANK17  BANK18  BANK19  BANK20  BANK21  BANK22  BANK23  BANK24  BANK25  BANK26  BANK27  BANK28  BANK29  BANK30  BANK3
      +1  BANK32  BANK33  BANK34  BANK35  BANK36  BANK37  BANK38  BANK39  BANK40  BANK41  BANK42  BANK43  BANK44  BANK45  BANK4
      +6  BANK47  BANK48  BANK49  BANK50  BANK51  BANK52  BANK53  BANK54  BANK55
  3086 ;;      Params:         0       0       0       0       0       0       0       0       0       0       0       0       
      +0       0       0       0       0       0       0       0       0       0       0       0       0       0       0       
      +0       0       0       0       0       0       0       0       0       0       0       0       0       0       0       
      +0       0       0       0       0       0       0       0       0       0
  3087 ;;      Locals:         1       0       0       0       0       0       0       0       0       0       0       0       
      +0       0       0       0       0       0       0       0       0       0       0       0       0       0       0       
      +0       0       0       0       0       0       0       0       0       0       0       0       0       0       0       
      +0       0       0       0       0       0       0       0       0       0
  3088 ;;      Temps:          0       0       0       0       0       0       0       0       0       0       0       0       
      +0       0       0       0       0       0       0       0       0       0       0       0       0       0       0       
      +0       0       0       0       0       0       0       0       0       0       0       0       0       0       0       
      +0       0       0       0       0       0       0       0       0       0
  3089 ;;      Totals:         1       0       0       0       0       0       0       0       0       0       0       0       
      +0       0       0       0       0       0       0       0       0       0       0       0       0       0       0       
      +0       0       0       0       0       0       0       0       0       0       0       0       0       0       0       
      +0       0       0       0       0       0       0       0       0       0
  3090 ;;Total ram usage:        1 bytes
  3091 ;; Hardware stack levels used: 1
  3092 ;; This function calls:
  3093 ;;		Nothing
  3094 ;; This function is called by:
  3095 ;;		_ADC_UserContext4Threshold_ISR
  3096 ;; This function uses a non-reentrant model
  3097 ;;
  3098                           
  3099                           	psect	text26
  3100  00497A                     __ptext26:
  3101                           	callstack 0
  3102  00497A                     i2_ADC_SelectContext:
  3103                           	callstack 121
  3104                           
  3105                           ;incstack = 0
  3106                           ;i2ADC_SelectContext@context stored from wreg
  3107  00497A  6E01               	movwf	i2ADC_SelectContext@context^(0+1280),c
  3108  00497C                     
  3109                           ;mcc_generated_files/adc.c: 457: __attribute__((inline)) void ADC_SelectContext(ADC_cont
      +                          ext_t context);mcc_generated_files/adc.c: 458: {;mcc_generated_files/adc.c: 459:     ADC
      +                          TX = context;
  3110  00497C  0061  F404  F3FB   	movff	i2ADC_SelectContext@context,1019	;volatile
  3111  004982  0012               	return		;funcret
  3112  004984                     __end_ofi2_ADC_SelectContext:
  3113                           	callstack 0
  3114                           
  3115 ;; *************** function i2_ADC_EnableChannelSequencer *****************
  3116 ;; Defined at:
  3117 ;;		line 442 in file "mcc_generated_files/adc.c"
  3118 ;; Parameters:    Size  Location     Type
  3119 ;;		None
  3120 ;; Auto vars:     Size  Location     Type
  3121 ;;		None
  3122 ;; Return value:  Size  Location     Type
  3123 ;;                  1    wreg      void 
  3124 ;; Registers used:
  3125 ;;		None
  3126 ;; Tracked objects:
  3127 ;;		On entry : 0/0
  3128 ;;		On exit  : 0/0
  3129 ;;		Unchanged: 0/0
  3130 ;; Data sizes:     COMRAM   BANK5   BANK6   BANK7   BANK8   BANK9  BANK10  BANK11  BANK12  BANK13  BANK14  BANK15  BANK1
      +6  BANK17  BANK18  BANK19  BANK20  BANK21  BANK22  BANK23  BANK24  BANK25  BANK26  BANK27  BANK28  BANK29  BANK30  BANK3
      +1  BANK32  BANK33  BANK34  BANK35  BANK36  BANK37  BANK38  BANK39  BANK40  BANK41  BANK42  BANK43  BANK44  BANK45  BANK4
      +6  BANK47  BANK48  BANK49  BANK50  BANK51  BANK52  BANK53  BANK54  BANK55
  3131 ;;      Params:         0       0       0       0       0       0       0       0       0       0       0       0       
      +0       0       0       0       0       0       0       0       0       0       0       0       0       0       0       
      +0       0       0       0       0       0       0       0       0       0       0       0       0       0       0       
      +0       0       0       0       0       0       0       0       0       0
  3132 ;;      Locals:         0       0       0       0       0       0       0       0       0       0       0       0       
      +0       0       0       0       0       0       0       0       0       0       0       0       0       0       0       
      +0       0       0       0       0       0       0       0       0       0       0       0       0       0       0       
      +0       0       0       0       0       0       0       0       0       0
  3133 ;;      Temps:          0       0       0       0       0       0       0       0       0       0       0       0       
      +0       0       0       0       0       0       0       0       0       0       0       0       0       0       0       
      +0       0       0       0       0       0       0       0       0       0       0       0       0       0       0       
      +0       0       0       0       0       0       0       0       0       0
  3134 ;;      Totals:         0       0       0       0       0       0       0       0       0       0       0       0       
      +0       0       0       0       0       0       0       0       0       0       0       0       0       0       0       
      +0       0       0       0       0       0       0       0       0       0       0       0       0       0       0       
      +0       0       0       0       0       0       0       0       0       0
  3135 ;;Total ram usage:        0 bytes
  3136 ;; Hardware stack levels used: 1
  3137 ;; This function calls:
  3138 ;;		Nothing
  3139 ;; This function is called by:
  3140 ;;		_ADC_UserContext4Threshold_ISR
  3141 ;; This function uses a non-reentrant model
  3142 ;;
  3143                           
  3144                           	psect	text27
  3145  0049A0                     __ptext27:
  3146                           	callstack 0
  3147  0049A0                     i2_ADC_EnableChannelSequencer:
  3148                           	callstack 121
  3149  0049A0                     
  3150                           ;mcc_generated_files/adc.c: 444:     ADCON0bits.CSEN = 1;
  3151  0049A0  0103               	movlb	3	; () banked
  3152  0049A2  8BF3               	bsf	243,5,b	;volatile
  3153  0049A4                     
  3154                           ; BSR set to: 3
  3155  0049A4  0012               	return		;funcret
  3156  0049A6                     __end_ofi2_ADC_EnableChannelSequencer:
  3157                           	callstack 0
  3158                           
  3159 ;; *************** function i2_ADC_DisableChannelSequencer *****************
  3160 ;; Defined at:
  3161 ;;		line 447 in file "mcc_generated_files/adc.c"
  3162 ;; Parameters:    Size  Location     Type
  3163 ;;		None
  3164 ;; Auto vars:     Size  Location     Type
  3165 ;;		None
  3166 ;; Return value:  Size  Location     Type
  3167 ;;                  1    wreg      void 
  3168 ;; Registers used:
  3169 ;;		None
  3170 ;; Tracked objects:
  3171 ;;		On entry : 0/0
  3172 ;;		On exit  : 0/0
  3173 ;;		Unchanged: 0/0
  3174 ;; Data sizes:     COMRAM   BANK5   BANK6   BANK7   BANK8   BANK9  BANK10  BANK11  BANK12  BANK13  BANK14  BANK15  BANK1
      +6  BANK17  BANK18  BANK19  BANK20  BANK21  BANK22  BANK23  BANK24  BANK25  BANK26  BANK27  BANK28  BANK29  BANK30  BANK3
      +1  BANK32  BANK33  BANK34  BANK35  BANK36  BANK37  BANK38  BANK39  BANK40  BANK41  BANK42  BANK43  BANK44  BANK45  BANK4
      +6  BANK47  BANK48  BANK49  BANK50  BANK51  BANK52  BANK53  BANK54  BANK55
  3175 ;;      Params:         0       0       0       0       0       0       0       0       0       0       0       0       
      +0       0       0       0       0       0       0       0       0       0       0       0       0       0       0       
      +0       0       0       0       0       0       0       0       0       0       0       0       0       0       0       
      +0       0       0       0       0       0       0       0       0       0
  3176 ;;      Locals:         0       0       0       0       0       0       0       0       0       0       0       0       
      +0       0       0       0       0       0       0       0       0       0       0       0       0       0       0       
      +0       0       0       0       0       0       0       0       0       0       0       0       0       0       0       
      +0       0       0       0       0       0       0       0       0       0
  3177 ;;      Temps:          0       0       0       0       0       0       0       0       0       0       0       0       
      +0       0       0       0       0       0       0       0       0       0       0       0       0       0       0       
      +0       0       0       0       0       0       0       0       0       0       0       0       0       0       0       
      +0       0       0       0       0       0       0       0       0       0
  3178 ;;      Totals:         0       0       0       0       0       0       0       0       0       0       0       0       
      +0       0       0       0       0       0       0       0       0       0       0       0       0       0       0       
      +0       0       0       0       0       0       0       0       0       0       0       0       0       0       0       
      +0       0       0       0       0       0       0       0       0       0
  3179 ;;Total ram usage:        0 bytes
  3180 ;; Hardware stack levels used: 1
  3181 ;; This function calls:
  3182 ;;		Nothing
  3183 ;; This function is called by:
  3184 ;;		_ADC_UserContext4Threshold_ISR
  3185 ;; This function uses a non-reentrant model
  3186 ;;
  3187                           
  3188                           	psect	text28
  3189  0049A6                     __ptext28:
  3190                           	callstack 0
  3191  0049A6                     i2_ADC_DisableChannelSequencer:
  3192                           	callstack 121
  3193  0049A6                     
  3194                           ;mcc_generated_files/adc.c: 449:     ADCON0bits.CSEN = 0;
  3195  0049A6  0103               	movlb	3	; () banked
  3196  0049A8  9BF3               	bcf	243,5,b	;volatile
  3197  0049AA                     
  3198                           ; BSR set to: 3
  3199  0049AA  0012               	return		;funcret
  3200  0049AC                     __end_ofi2_ADC_DisableChannelSequencer:
  3201                           	callstack 0
  3202                           
  3203 ;; *************** function _printf *****************
  3204 ;; Defined at:
  3205 ;;		line 5 in file "C:\Program Files\Microchip\xc8\v2.32\pic\sources\c99\common\printf.c"
  3206 ;; Parameters:    Size  Location     Type
  3207 ;;  fmt             2   89[COMRAM] PTR const unsigned char 
  3208 ;;		 -> STR_5(3), STR_4(17), STR_3(17), STR_2(17), 
  3209 ;;		 -> STR_1(17), 
  3210 ;; Auto vars:     Size  Location     Type
  3211 ;;  ap              2   93[COMRAM] PTR void [1]
  3212 ;;		 -> ?_printf(2), 
  3213 ;;  ret             2    0        int 
  3214 ;; Return value:  Size  Location     Type
  3215 ;;                  2   89[COMRAM] int 
  3216 ;; Registers used:
  3217 ;;		wreg, fsr1l, fsr1h, fsr2l, fsr2h, status,2, status,0, tblptrl, tblptrh, tblptru, cstack
  3218 ;; Tracked objects:
  3219 ;;		On entry : 0/0
  3220 ;;		On exit  : 0/0
  3221 ;;		Unchanged: 0/0
  3222 ;; Data sizes:     COMRAM   BANK5   BANK6   BANK7   BANK8   BANK9  BANK10  BANK11  BANK12  BANK13  BANK14  BANK15  BANK1
      +6  BANK17  BANK18  BANK19  BANK20  BANK21  BANK22  BANK23  BANK24  BANK25  BANK26  BANK27  BANK28  BANK29  BANK30  BANK3
      +1  BANK32  BANK33  BANK34  BANK35  BANK36  BANK37  BANK38  BANK39  BANK40  BANK41  BANK42  BANK43  BANK44  BANK45  BANK4
      +6  BANK47  BANK48  BANK49  BANK50  BANK51  BANK52  BANK53  BANK54  BANK55
  3223 ;;      Params:         4       0       0       0       0       0       0       0       0       0       0       0       
      +0       0       0       0       0       0       0       0       0       0       0       0       0       0       0       
      +0       0       0       0       0       0       0       0       0       0       0       0       0       0       0       
      +0       0       0       0       0       0       0       0       0       0
  3224 ;;      Locals:         2       0       0       0       0       0       0       0       0       0       0       0       
      +0       0       0       0       0       0       0       0       0       0       0       0       0       0       0       
      +0       0       0       0       0       0       0       0       0       0       0       0       0       0       0       
      +0       0       0       0       0       0       0       0       0       0
  3225 ;;      Temps:          0       0       0       0       0       0       0       0       0       0       0       0       
      +0       0       0       0       0       0       0       0       0       0       0       0       0       0       0       
      +0       0       0       0       0       0       0       0       0       0       0       0       0       0       0       
      +0       0       0       0       0       0       0       0       0       0
  3226 ;;      Totals:         6       0       0       0       0       0       0       0       0       0       0       0       
      +0       0       0       0       0       0       0       0       0       0       0       0       0       0       0       
      +0       0       0       0       0       0       0       0       0       0       0       0       0       0       0       
      +0       0       0       0       0       0       0       0       0       0
  3227 ;;Total ram usage:        6 bytes
  3228 ;; Hardware stack levels used: 1
  3229 ;; Hardware stack levels required when called: 8
  3230 ;; This function calls:
  3231 ;;		_vfprintf
  3232 ;; This function is called by:
  3233 ;;		_ADC_UserContext4Threshold_ISR
  3234 ;; This function uses a non-reentrant model
  3235 ;;
  3236                           
  3237                           	psect	text29
  3238  004848                     __ptext29:
  3239                           	callstack 0
  3240  004848                     _printf:
  3241                           	callstack 113
  3242  004848  0E5C               	movlw	low (?_printf+2)
  3243  00484A  6E5E               	movwf	printf@ap^(0+1280),c
  3244  00484C  0E05               	movlw	high (?_printf+2)
  3245  00484E  6E5F               	movwf	(printf@ap+1)^(0+1280),c
  3246  004850  0E00               	movlw	0
  3247  004852  6E52               	movwf	vfprintf@fp^(0+1280),c
  3248  004854  0E00               	movlw	0
  3249  004856  6E53               	movwf	(vfprintf@fp+1)^(0+1280),c
  3250  004858  C55A  F554         	movff	printf@fmt,vfprintf@fmt
  3251  00485C  C55B  F555         	movff	printf@fmt+1,vfprintf@fmt+1
  3252  004860  0E5E               	movlw	low printf@ap
  3253  004862  6E56               	movwf	vfprintf@ap^(0+1280),c
  3254  004864  0E05               	movlw	high printf@ap
  3255  004866  6E57               	movwf	(vfprintf@ap+1)^(0+1280),c
  3256  004868  EC0D  F023         	call	_vfprintf	;wreg free
  3257  00486C  0012               	return		;funcret
  3258  00486E                     __end_of_printf:
  3259                           	callstack 0
  3260                           
  3261 ;; *************** function _vfprintf *****************
  3262 ;; Defined at:
  3263 ;;		line 1390 in file "C:\Program Files\Microchip\xc8\v2.32\pic\sources\c99\common\doprnt.c"
  3264 ;; Parameters:    Size  Location     Type
  3265 ;;  fp              2   81[COMRAM] PTR struct _IO_FILE
  3266 ;;		 -> NULL(0), 
  3267 ;;  fmt             2   83[COMRAM] PTR const unsigned char 
  3268 ;;		 -> STR_5(3), STR_4(17), STR_3(17), STR_2(17), 
  3269 ;;		 -> STR_1(17), 
  3270 ;;  ap              2   85[COMRAM] PTR PTR void 
  3271 ;;		 -> printf@ap(2), 
  3272 ;; Auto vars:     Size  Location     Type
  3273 ;;  cfmt            2   87[COMRAM] PTR unsigned char 
  3274 ;;		 -> STR_5(3), STR_4(17), STR_3(17), STR_2(17), 
  3275 ;;		 -> STR_1(17), 
  3276 ;; Return value:  Size  Location     Type
  3277 ;;                  2   81[COMRAM] int 
  3278 ;; Registers used:
  3279 ;;		wreg, fsr1l, fsr1h, fsr2l, fsr2h, status,2, status,0, tblptrl, tblptrh, tblptru, cstack
  3280 ;; Tracked objects:
  3281 ;;		On entry : 0/0
  3282 ;;		On exit  : 0/0
  3283 ;;		Unchanged: 0/0
  3284 ;; Data sizes:     COMRAM   BANK5   BANK6   BANK7   BANK8   BANK9  BANK10  BANK11  BANK12  BANK13  BANK14  BANK15  BANK1
      +6  BANK17  BANK18  BANK19  BANK20  BANK21  BANK22  BANK23  BANK24  BANK25  BANK26  BANK27  BANK28  BANK29  BANK30  BANK3
      +1  BANK32  BANK33  BANK34  BANK35  BANK36  BANK37  BANK38  BANK39  BANK40  BANK41  BANK42  BANK43  BANK44  BANK45  BANK4
      +6  BANK47  BANK48  BANK49  BANK50  BANK51  BANK52  BANK53  BANK54  BANK55
  3285 ;;      Params:         6       0       0       0       0       0       0       0       0       0       0       0       
      +0       0       0       0       0       0       0       0       0       0       0       0       0       0       0       
      +0       0       0       0       0       0       0       0       0       0       0       0       0       0       0       
      +0       0       0       0       0       0       0       0       0       0
  3286 ;;      Locals:         2       0       0       0       0       0       0       0       0       0       0       0       
      +0       0       0       0       0       0       0       0       0       0       0       0       0       0       0       
      +0       0       0       0       0       0       0       0       0       0       0       0       0       0       0       
      +0       0       0       0       0       0       0       0       0       0
  3287 ;;      Temps:          0       0       0       0       0       0       0       0       0       0       0       0       
      +0       0       0       0       0       0       0       0       0       0       0       0       0       0       0       
      +0       0       0       0       0       0       0       0       0       0       0       0       0       0       0       
      +0       0       0       0       0       0       0       0       0       0
  3288 ;;      Totals:         8       0       0       0       0       0       0       0       0       0       0       0       
      +0       0       0       0       0       0       0       0       0       0       0       0       0       0       0       
      +0       0       0       0       0       0       0       0       0       0       0       0       0       0       0       
      +0       0       0       0       0       0       0       0       0       0
  3289 ;;Total ram usage:        8 bytes
  3290 ;; Hardware stack levels used: 1
  3291 ;; Hardware stack levels required when called: 7
  3292 ;; This function calls:
  3293 ;;		_vfpfcnvrt
  3294 ;; This function is called by:
  3295 ;;		_printf
  3296 ;; This function uses a non-reentrant model
  3297 ;;
  3298                           
  3299                           	psect	text30
  3300  00461A                     __ptext30:
  3301                           	callstack 0
  3302  00461A                     _vfprintf:
  3303                           	callstack 113
  3304  00461A                     
  3305                           ;C:\Program Files\Microchip\xc8\v2.32\pic\sources\c99\common\doprnt.c: 1390: int vfprint
      +                          f(FILE *fp, const char *fmt, va_list ap);C:\Program Files\Microchip\xc8\v2.32\pic\source
      +                          s\c99\common\doprnt.c: 1391: {;C:\Program Files\Microchip\xc8\v2.32\pic\sources\c99\comm
      +                          on\doprnt.c: 1393:     char *cfmt;;C:\Program Files\Microchip\xc8\v2.32\pic\sources\c99\
      +                          common\doprnt.c: 1395:     cfmt = (char *)fmt;
  3306  00461A  C554  F558         	movff	vfprintf@fmt,vfprintf@cfmt
  3307  00461E  C555  F559         	movff	vfprintf@fmt+1,vfprintf@cfmt+1
  3308  004622                     
  3309                           ;C:\Program Files\Microchip\xc8\v2.32\pic\sources\c99\common\doprnt.c: 1396:     nout = 
      +                          0;
  3310  004622  0E00               	movlw	0
  3311  004624  0105               	movlb	5	; () banked
  3312  004626  6F6A               	movwf	(_nout+1)& (0+255),b
  3313  004628  0E00               	movlw	0
  3314  00462A  6F69               	movwf	_nout& (0+255),b
  3315                           
  3316                           ;C:\Program Files\Microchip\xc8\v2.32\pic\sources\c99\common\doprnt.c: 1397:     while (
      +                          *cfmt) {
  3317  00462C  EF2B  F023         	goto	i2l2424
  3318  004630                     i2l2422:
  3319                           
  3320                           ; BSR set to: 5
  3321                           ;C:\Program Files\Microchip\xc8\v2.32\pic\sources\c99\common\doprnt.c: 1398:         nou
      +                          t += vfpfcnvrt(fp, &cfmt, ap);
  3322  004630  C552  F542         	movff	vfprintf@fp,vfpfcnvrt@fp
  3323  004634  C553  F543         	movff	vfprintf@fp+1,vfpfcnvrt@fp+1
  3324  004638  0E58               	movlw	low vfprintf@cfmt
  3325  00463A  6E44               	movwf	vfpfcnvrt@fmt^(0+1280),c
  3326  00463C  0E05               	movlw	high vfprintf@cfmt
  3327  00463E  6E45               	movwf	(vfpfcnvrt@fmt+1)^(0+1280),c
  3328  004640  C556  F546         	movff	vfprintf@ap,vfpfcnvrt@ap
  3329  004644  C557  F547         	movff	vfprintf@ap+1,vfpfcnvrt@ap+1
  3330  004648  ECB5  F01E         	call	_vfpfcnvrt	;wreg free
  3331  00464C  5042               	movf	?_vfpfcnvrt^(0+1280),w,c
  3332  00464E  0105               	movlb	5	; () banked
  3333  004650  2769               	addwf	_nout& (0+255),f,b
  3334  004652  5043               	movf	(?_vfpfcnvrt+1)^(0+1280),w,c
  3335  004654  236A               	addwfc	(_nout+1)& (0+255),f,b
  3336  004656                     i2l2424:
  3337                           
  3338                           ; BSR set to: 5
  3339                           ;C:\Program Files\Microchip\xc8\v2.32\pic\sources\c99\common\doprnt.c: 1397:     while (
      +                          *cfmt) {
  3340  004656  0061  F560  F4F6   	movff	vfprintf@cfmt,tblptrl
  3341  00465C  0061  F564  F4F7   	movff	vfprintf@cfmt+1,tblptrh
  3342  004662                     	if	0	;tblptru may be non-zero
  3343  004662                     	endif
  3344  004662                     	if	1	;Program memory is > 0xFFFF, there are 3 active tblptr bytes
  3345  004662  0E00               	movlw	low (__mediumconst shr (0+16))
  3346  004664  6EF8               	movwf	tblptru,c
  3347  004666                     	endif
  3348  004666  0008               	tblrd		*
  3349  004668  50F5               	movf	tablat,w,c
  3350  00466A  0900               	iorlw	0
  3351  00466C  A4D8               	btfss	status,2,c
  3352  00466E  EF3B  F023         	goto	i2u120_41
  3353  004672  EF3D  F023         	goto	i2u120_40
  3354  004676                     i2u120_41:
  3355  004676  EF18  F023         	goto	i2l2422
  3356  00467A                     i2u120_40:
  3357  00467A                     
  3358                           ; BSR set to: 5
  3359                           ;C:\Program Files\Microchip\xc8\v2.32\pic\sources\c99\common\doprnt.c: 1400:     return 
      +                          nout;
  3360  00467A  C569  F552         	movff	_nout,?_vfprintf
  3361  00467E  C56A  F553         	movff	_nout+1,?_vfprintf+1
  3362  004682                     
  3363                           ; BSR set to: 5
  3364  004682  0012               	return		;funcret
  3365  004684                     __end_of_vfprintf:
  3366                           	callstack 0
  3367                           
  3368 ;; *************** function _vfpfcnvrt *****************
  3369 ;; Defined at:
  3370 ;;		line 692 in file "C:\Program Files\Microchip\xc8\v2.32\pic\sources\c99\common\doprnt.c"
  3371 ;; Parameters:    Size  Location     Type
  3372 ;;  fp              2   65[COMRAM] PTR struct _IO_FILE
  3373 ;;		 -> NULL(0), 
  3374 ;;  fmt             2   67[COMRAM] PTR PTR unsigned char 
  3375 ;;		 -> vfprintf@cfmt(2), 
  3376 ;;  ap              2   69[COMRAM] PTR PTR void 
  3377 ;;		 -> printf@ap(2), 
  3378 ;; Auto vars:     Size  Location     Type
  3379 ;;  ll              8   73[COMRAM] long long 
  3380 ;;  llu             8    0        unsigned long long 
  3381 ;;  f               4    0        unsigned long long 
  3382 ;;  vp              3    0        PTR void 
  3383 ;;  ct              3    0        unsigned char [3]
  3384 ;;  cp              3    0        PTR unsigned char 
  3385 ;;  i               2    0        int 
  3386 ;;  done            2    0        int 
  3387 ;;  c               1    0        unsigned char 
  3388 ;; Return value:  Size  Location     Type
  3389 ;;                  2   65[COMRAM] int 
  3390 ;; Registers used:
  3391 ;;		wreg, fsr1l, fsr1h, fsr2l, fsr2h, status,2, status,0, tblptrl, tblptrh, tblptru, cstack
  3392 ;; Tracked objects:
  3393 ;;		On entry : 0/0
  3394 ;;		On exit  : 0/0
  3395 ;;		Unchanged: 0/0
  3396 ;; Data sizes:     COMRAM   BANK5   BANK6   BANK7   BANK8   BANK9  BANK10  BANK11  BANK12  BANK13  BANK14  BANK15  BANK1
      +6  BANK17  BANK18  BANK19  BANK20  BANK21  BANK22  BANK23  BANK24  BANK25  BANK26  BANK27  BANK28  BANK29  BANK30  BANK3
      +1  BANK32  BANK33  BANK34  BANK35  BANK36  BANK37  BANK38  BANK39  BANK40  BANK41  BANK42  BANK43  BANK44  BANK45  BANK4
      +6  BANK47  BANK48  BANK49  BANK50  BANK51  BANK52  BANK53  BANK54  BANK55
  3397 ;;      Params:         6       0       0       0       0       0       0       0       0       0       0       0       
      +0       0       0       0       0       0       0       0       0       0       0       0       0       0       0       
      +0       0       0       0       0       0       0       0       0       0       0       0       0       0       0       
      +0       0       0       0       0       0       0       0       0       0
  3398 ;;      Locals:         8       0       0       0       0       0       0       0       0       0       0       0       
      +0       0       0       0       0       0       0       0       0       0       0       0       0       0       0       
      +0       0       0       0       0       0       0       0       0       0       0       0       0       0       0       
      +0       0       0       0       0       0       0       0       0       0
  3399 ;;      Temps:          2       0       0       0       0       0       0       0       0       0       0       0       
      +0       0       0       0       0       0       0       0       0       0       0       0       0       0       0       
      +0       0       0       0       0       0       0       0       0       0       0       0       0       0       0       
      +0       0       0       0       0       0       0       0       0       0
  3400 ;;      Totals:        16       0       0       0       0       0       0       0       0       0       0       0       
      +0       0       0       0       0       0       0       0       0       0       0       0       0       0       0       
      +0       0       0       0       0       0       0       0       0       0       0       0       0       0       0       
      +0       0       0       0       0       0       0       0       0       0
  3401 ;;Total ram usage:       16 bytes
  3402 ;; Hardware stack levels used: 1
  3403 ;; Hardware stack levels required when called: 6
  3404 ;; This function calls:
  3405 ;;		_dtoa
  3406 ;;		_fputc
  3407 ;; This function is called by:
  3408 ;;		_vfprintf
  3409 ;; This function uses a non-reentrant model
  3410 ;;
  3411                           
  3412                           	psect	text31
  3413  003D6A                     __ptext31:
  3414                           	callstack 0
  3415  003D6A                     _vfpfcnvrt:
  3416                           	callstack 113
  3417  003D6A                     
  3418                           ;C:\Program Files\Microchip\xc8\v2.32\pic\sources\c99\common\doprnt.c: 692: static int v
      +                          fpfcnvrt(FILE *fp, char *fmt[], va_list ap);C:\Program Files\Microchip\xc8\v2.32\pic\sou
      +                          rces\c99\common\doprnt.c: 693: {;C:\Program Files\Microchip\xc8\v2.32\pic\sources\c99\co
      +                          mmon\doprnt.c: 694:     char c, *cp, ct[3];;C:\Program Files\Microchip\xc8\v2.32\pic\sou
      +                          rces\c99\common\doprnt.c: 695:     int done, i;;C:\Program Files\Microchip\xc8\v2.32\pic
      +                          \sources\c99\common\doprnt.c: 696:     long long ll;;C:\Program Files\Microchip\xc8\v2.3
      +                          2\pic\sources\c99\common\doprnt.c: 697:     unsigned long long llu;
  3419  003D6A  0061  F510  F4D9   	movff	vfpfcnvrt@fmt,fsr2l
  3420  003D70  0061  F514  F4DA   	movff	vfpfcnvrt@fmt+1,fsr2h
  3421  003D76  C4DE F4F6          	movff	postinc2,tblptrl
  3422  003D7A  C4DD F4F7          	movff	postdec2,tblptrh
  3423  003D7E                     	if	0	;tblptru may be non-zero
  3424  003D7E                     	endif
  3425  003D7E                     	if	1	;Program memory is > 0xFFFF, there are 3 active tblptr bytes
  3426  003D7E  0E00               	movlw	low (__mediumconst shr (0+16))
  3427  003D80  6EF8               	movwf	tblptru,c
  3428  003D82                     	endif
  3429  003D82  0008               	tblrd		*
  3430  003D84  50F5               	movf	tablat,w,c
  3431  003D86  0A25               	xorlw	37
  3432  003D88  A4D8               	btfss	status,2,c
  3433  003D8A  EFC9  F01E         	goto	i2u116_41
  3434  003D8E  EFCB  F01E         	goto	i2u116_40
  3435  003D92                     i2u116_41:
  3436  003D92  EF93  F01F         	goto	i2l2410
  3437  003D96                     i2u116_40:
  3438  003D96                     
  3439                           ;C:\Program Files\Microchip\xc8\v2.32\pic\sources\c99\common\doprnt.c: 703:         ++*f
      +                          mt;
  3440  003D96  0061  F510  F4D9   	movff	vfpfcnvrt@fmt,fsr2l
  3441  003D9C  0061  F514  F4DA   	movff	vfpfcnvrt@fmt+1,fsr2h
  3442  003DA2  2ADE               	incf	postinc2,f,c
  3443  003DA4  0E00               	movlw	0
  3444  003DA6  22DD               	addwfc	postdec2,f,c
  3445  003DA8                     
  3446                           ;C:\Program Files\Microchip\xc8\v2.32\pic\sources\c99\common\doprnt.c: 705:         flag
      +                          s = width = 0;
  3447  003DA8  0E00               	movlw	0
  3448  003DAA  0105               	movlb	5	; () banked
  3449  003DAC  6F6C               	movwf	(_width+1)& (0+255),b
  3450  003DAE  0E00               	movlw	0
  3451  003DB0  6F6B               	movwf	_width& (0+255),b
  3452  003DB2  C56B  F56F         	movff	_width,_flags
  3453  003DB6  C56C  F570         	movff	_width+1,_flags+1
  3454  003DBA                     
  3455                           ; BSR set to: 5
  3456                           ;C:\Program Files\Microchip\xc8\v2.32\pic\sources\c99\common\doprnt.c: 706:         prec
      +                           = -1;
  3457  003DBA  696D               	setf	_prec& (0+255),b
  3458  003DBC  696E               	setf	(_prec+1)& (0+255),b
  3459  003DBE                     
  3460                           ; BSR set to: 5
  3461                           ;C:\Program Files\Microchip\xc8\v2.32\pic\sources\c99\common\doprnt.c: 847:         if (
      +                          (*fmt[0] == 'd') || (*fmt[0] == 'i')) {
  3462  003DBE  0061  F510  F4D9   	movff	vfpfcnvrt@fmt,fsr2l
  3463  003DC4  0061  F514  F4DA   	movff	vfpfcnvrt@fmt+1,fsr2h
  3464  003DCA  C4DE F4F6          	movff	postinc2,tblptrl
  3465  003DCE  C4DD F4F7          	movff	postdec2,tblptrh
  3466  003DD2                     	if	0	;tblptru may be non-zero
  3467  003DD2                     	endif
  3468  003DD2                     	if	1	;Program memory is > 0xFFFF, there are 3 active tblptr bytes
  3469  003DD2  0E00               	movlw	low (__mediumconst shr (0+16))
  3470  003DD4  6EF8               	movwf	tblptru,c
  3471  003DD6                     	endif
  3472  003DD6  0008               	tblrd		*
  3473  003DD8  50F5               	movf	tablat,w,c
  3474  003DDA  0A64               	xorlw	100
  3475  003DDC  B4D8               	btfsc	status,2,c
  3476  003DDE  EFF3  F01E         	goto	i2u117_41
  3477  003DE2  EFF5  F01E         	goto	i2u117_40
  3478  003DE6                     i2u117_41:
  3479  003DE6  EF0B  F01F         	goto	i2l2388
  3480  003DEA                     i2u117_40:
  3481  003DEA                     
  3482                           ; BSR set to: 5
  3483  003DEA  0061  F510  F4D9   	movff	vfpfcnvrt@fmt,fsr2l
  3484  003DF0  0061  F514  F4DA   	movff	vfpfcnvrt@fmt+1,fsr2h
  3485  003DF6  C4DE F4F6          	movff	postinc2,tblptrl
  3486  003DFA  C4DD F4F7          	movff	postdec2,tblptrh
  3487  003DFE                     	if	0	;tblptru may be non-zero
  3488  003DFE                     	endif
  3489  003DFE                     	if	1	;Program memory is > 0xFFFF, there are 3 active tblptr bytes
  3490  003DFE  0E00               	movlw	low (__mediumconst shr (0+16))
  3491  003E00  6EF8               	movwf	tblptru,c
  3492  003E02                     	endif
  3493  003E02  0008               	tblrd		*
  3494  003E04  50F5               	movf	tablat,w,c
  3495  003E06  0A69               	xorlw	105
  3496  003E08  A4D8               	btfss	status,2,c
  3497  003E0A  EF09  F01F         	goto	i2u118_41
  3498  003E0E  EF0B  F01F         	goto	i2u118_40
  3499  003E12                     i2u118_41:
  3500  003E12  EF55  F01F         	goto	i2l2394
  3501  003E16                     i2u118_40:
  3502  003E16                     i2l2388:
  3503                           
  3504                           ; BSR set to: 5
  3505                           ;C:\Program Files\Microchip\xc8\v2.32\pic\sources\c99\common\doprnt.c: 849:             
      +                          ++*fmt;
  3506  003E16  0061  F510  F4D9   	movff	vfpfcnvrt@fmt,fsr2l
  3507  003E1C  0061  F514  F4DA   	movff	vfpfcnvrt@fmt+1,fsr2h
  3508  003E22  2ADE               	incf	postinc2,f,c
  3509  003E24  0E00               	movlw	0
  3510  003E26  22DD               	addwfc	postdec2,f,c
  3511                           
  3512                           ;C:\Program Files\Microchip\xc8\v2.32\pic\sources\c99\common\doprnt.c: 850:             
      +                          ll = (long long)(*(int *)__va_arg(*(int **)ap, (int)0));
  3513  003E28  0061  F518  F4D9   	movff	vfpfcnvrt@ap,fsr2l
  3514  003E2E  0061  F51C  F4DA   	movff	vfpfcnvrt@ap+1,fsr2h
  3515  003E34  0061 F37C  F548    	movff	indf2,??_vfpfcnvrt
  3516  003E3A  0E02               	movlw	2
  3517  003E3C  26DE               	addwf	postinc2,f,c
  3518  003E3E  0061 F37C  F549    	movff	indf2,??_vfpfcnvrt+1
  3519  003E44  0E00               	movlw	0
  3520  003E46  22DD               	addwfc	postdec2,f,c
  3521  003E48  0061  F520  F4D9   	movff	??_vfpfcnvrt,fsr2l
  3522  003E4E  0061  F524  F4DA   	movff	??_vfpfcnvrt+1,fsr2h
  3523  003E54  0061 F378  F54A    	movff	postinc2,vfpfcnvrt@ll
  3524  003E5A  0061 F374  F54B    	movff	postdec2,vfpfcnvrt@ll+1
  3525  003E60  0E00               	movlw	0
  3526  003E62  BE4B               	btfsc	(vfpfcnvrt@ll+1)^(0+1280),7,c
  3527  003E64  0EFF               	movlw	-1
  3528  003E66  6E4C               	movwf	(vfpfcnvrt@ll+2)^(0+1280),c
  3529  003E68  6E4D               	movwf	(vfpfcnvrt@ll+3)^(0+1280),c
  3530  003E6A  6E4E               	movwf	(vfpfcnvrt@ll+4)^(0+1280),c
  3531  003E6C  6E4F               	movwf	(vfpfcnvrt@ll+5)^(0+1280),c
  3532  003E6E  6E50               	movwf	(vfpfcnvrt@ll+6)^(0+1280),c
  3533  003E70  6E51               	movwf	(vfpfcnvrt@ll+7)^(0+1280),c
  3534  003E72                     
  3535                           ; BSR set to: 5
  3536                           ;C:\Program Files\Microchip\xc8\v2.32\pic\sources\c99\common\doprnt.c: 852:             
      +                          return dtoa(fp, ll);
  3537  003E72  C542  F51E         	movff	vfpfcnvrt@fp,dtoa@fp
  3538  003E76  C543  F51F         	movff	vfpfcnvrt@fp+1,dtoa@fp+1
  3539  003E7A  C54A  F520         	movff	vfpfcnvrt@ll,dtoa@d
  3540  003E7E  C54B  F521         	movff	vfpfcnvrt@ll+1,dtoa@d+1
  3541  003E82  C54C  F522         	movff	vfpfcnvrt@ll+2,dtoa@d+2
  3542  003E86  C54D  F523         	movff	vfpfcnvrt@ll+3,dtoa@d+3
  3543  003E8A  C54E  F524         	movff	vfpfcnvrt@ll+4,dtoa@d+4
  3544  003E8E  C54F  F525         	movff	vfpfcnvrt@ll+5,dtoa@d+5
  3545  003E92  C550  F526         	movff	vfpfcnvrt@ll+6,dtoa@d+6
  3546  003E96  C551  F527         	movff	vfpfcnvrt@ll+7,dtoa@d+7
  3547  003E9A  EC23  F01C         	call	_dtoa	;wreg free
  3548  003E9E  C51E  F542         	movff	?_dtoa,?_vfpfcnvrt
  3549  003EA2  C51F  F543         	movff	?_dtoa+1,?_vfpfcnvrt+1
  3550  003EA6  EFB4  F01F         	goto	i2l1448
  3551  003EAA                     i2l2394:
  3552                           
  3553                           ; BSR set to: 5
  3554                           ;C:\Program Files\Microchip\xc8\v2.32\pic\sources\c99\common\doprnt.c: 1372:         if 
      +                          ((*fmt)[0] == '%') {
  3555  003EAA  0061  F510  F4D9   	movff	vfpfcnvrt@fmt,fsr2l
  3556  003EB0  0061  F514  F4DA   	movff	vfpfcnvrt@fmt+1,fsr2h
  3557  003EB6  C4DE F4F6          	movff	postinc2,tblptrl
  3558  003EBA  C4DD F4F7          	movff	postdec2,tblptrh
  3559  003EBE                     	if	0	;tblptru may be non-zero
  3560  003EBE                     	endif
  3561  003EBE                     	if	1	;Program memory is > 0xFFFF, there are 3 active tblptr bytes
  3562  003EBE  0E00               	movlw	low (__mediumconst shr (0+16))
  3563  003EC0  6EF8               	movwf	tblptru,c
  3564  003EC2                     	endif
  3565  003EC2  0008               	tblrd		*
  3566  003EC4  50F5               	movf	tablat,w,c
  3567  003EC6  0A25               	xorlw	37
  3568  003EC8  A4D8               	btfss	status,2,c
  3569  003ECA  EF69  F01F         	goto	i2u119_41
  3570  003ECE  EF6B  F01F         	goto	i2u119_40
  3571  003ED2                     i2u119_41:
  3572  003ED2  EF84  F01F         	goto	i2l2404
  3573  003ED6                     i2u119_40:
  3574  003ED6                     
  3575                           ; BSR set to: 5
  3576                           ;C:\Program Files\Microchip\xc8\v2.32\pic\sources\c99\common\doprnt.c: 1373:            
      +                           ++*fmt;
  3577  003ED6  0061  F510  F4D9   	movff	vfpfcnvrt@fmt,fsr2l
  3578  003EDC  0061  F514  F4DA   	movff	vfpfcnvrt@fmt+1,fsr2h
  3579  003EE2  2ADE               	incf	postinc2,f,c
  3580  003EE4  0E00               	movlw	0
  3581  003EE6  22DD               	addwfc	postdec2,f,c
  3582  003EE8                     
  3583                           ; BSR set to: 5
  3584                           ;C:\Program Files\Microchip\xc8\v2.32\pic\sources\c99\common\doprnt.c: 1374:            
      +                           fputc((int)'%', fp);
  3585  003EE8  0E00               	movlw	0
  3586  003EEA  6E04               	movwf	(fputc@c+1)^(0+1280),c
  3587  003EEC  0E25               	movlw	37
  3588  003EEE  6E03               	movwf	fputc@c^(0+1280),c
  3589  003EF0  C542  F505         	movff	vfpfcnvrt@fp,fputc@fp
  3590  003EF4  C543  F506         	movff	vfpfcnvrt@fp+1,fputc@fp+1
  3591  003EF8  EC84  F022         	call	_fputc	;wreg free
  3592  003EFC                     i2l2400:
  3593                           
  3594                           ;C:\Program Files\Microchip\xc8\v2.32\pic\sources\c99\common\doprnt.c: 1375:            
      +                           return 1;
  3595  003EFC  0E00               	movlw	0
  3596  003EFE  6E43               	movwf	(?_vfpfcnvrt+1)^(0+1280),c
  3597  003F00  0E01               	movlw	1
  3598  003F02  6E42               	movwf	?_vfpfcnvrt^(0+1280),c
  3599  003F04  EFB4  F01F         	goto	i2l1448
  3600  003F08                     i2l2404:
  3601                           
  3602                           ; BSR set to: 5
  3603                           ;C:\Program Files\Microchip\xc8\v2.32\pic\sources\c99\common\doprnt.c: 1379:         ++*
      +                          fmt;
  3604  003F08  0061  F510  F4D9   	movff	vfpfcnvrt@fmt,fsr2l
  3605  003F0E  0061  F514  F4DA   	movff	vfpfcnvrt@fmt+1,fsr2h
  3606  003F14  2ADE               	incf	postinc2,f,c
  3607  003F16  0E00               	movlw	0
  3608  003F18  22DD               	addwfc	postdec2,f,c
  3609  003F1A                     
  3610                           ; BSR set to: 5
  3611                           ;C:\Program Files\Microchip\xc8\v2.32\pic\sources\c99\common\doprnt.c: 1380:         ret
      +                          urn 0;
  3612  003F1A  0E00               	movlw	0
  3613  003F1C  6E43               	movwf	(?_vfpfcnvrt+1)^(0+1280),c
  3614  003F1E  0E00               	movlw	0
  3615  003F20  6E42               	movwf	?_vfpfcnvrt^(0+1280),c
  3616  003F22  EFB4  F01F         	goto	i2l1448
  3617  003F26                     i2l2410:
  3618                           
  3619                           ;C:\Program Files\Microchip\xc8\v2.32\pic\sources\c99\common\doprnt.c: 1384:     fputc((
      +                          int)(*fmt)[0], fp);
  3620  003F26  0061  F510  F4D9   	movff	vfpfcnvrt@fmt,fsr2l
  3621  003F2C  0061  F514  F4DA   	movff	vfpfcnvrt@fmt+1,fsr2h
  3622  003F32  C4DE F4F6          	movff	postinc2,tblptrl
  3623  003F36  C4DD F4F7          	movff	postdec2,tblptrh
  3624  003F3A                     	if	0	;tblptru may be non-zero
  3625  003F3A                     	endif
  3626  003F3A                     	if	1	;Program memory is > 0xFFFF, there are 3 active tblptr bytes
  3627  003F3A  0E00               	movlw	low (__mediumconst shr (0+16))
  3628  003F3C  6EF8               	movwf	tblptru,c
  3629  003F3E                     	endif
  3630  003F3E  0008               	tblrd		*
  3631  003F40  50F5               	movf	tablat,w,c
  3632  003F42  6E03               	movwf	fputc@c^(0+1280),c
  3633  003F44  6A04               	clrf	(fputc@c+1)^(0+1280),c
  3634  003F46  C542  F505         	movff	vfpfcnvrt@fp,fputc@fp
  3635  003F4A  C543  F506         	movff	vfpfcnvrt@fp+1,fputc@fp+1
  3636  003F4E  EC84  F022         	call	_fputc	;wreg free
  3637  003F52                     
  3638                           ;C:\Program Files\Microchip\xc8\v2.32\pic\sources\c99\common\doprnt.c: 1385:     ++*fmt;
  3639  003F52  0061  F510  F4D9   	movff	vfpfcnvrt@fmt,fsr2l
  3640  003F58  0061  F514  F4DA   	movff	vfpfcnvrt@fmt+1,fsr2h
  3641  003F5E  2ADE               	incf	postinc2,f,c
  3642  003F60  0E00               	movlw	0
  3643  003F62  22DD               	addwfc	postdec2,f,c
  3644  003F64  EF7E  F01F         	goto	i2l2400
  3645  003F68                     i2l1448:
  3646  003F68  0012               	return		;funcret
  3647  003F6A                     __end_of_vfpfcnvrt:
  3648                           	callstack 0
  3649                           
  3650 ;; *************** function _dtoa *****************
  3651 ;; Defined at:
  3652 ;;		line 287 in file "C:\Program Files\Microchip\xc8\v2.32\pic\sources\c99\common\doprnt.c"
  3653 ;; Parameters:    Size  Location     Type
  3654 ;;  fp              2   29[COMRAM] PTR struct _IO_FILE
  3655 ;;		 -> NULL(0), 
  3656 ;;  d               8   31[COMRAM] long long 
  3657 ;; Auto vars:     Size  Location     Type
  3658 ;;  n               8   55[COMRAM] long long 
  3659 ;;  i               2   63[COMRAM] int 
  3660 ;;  s               2   53[COMRAM] int 
  3661 ;;  w               2   51[COMRAM] int 
  3662 ;;  p               2   49[COMRAM] int 
  3663 ;; Return value:  Size  Location     Type
  3664 ;;                  2   29[COMRAM] int 
  3665 ;; Registers used:
  3666 ;;		wreg, fsr1l, fsr1h, fsr2l, fsr2h, status,2, status,0, cstack
  3667 ;; Tracked objects:
  3668 ;;		On entry : 0/0
  3669 ;;		On exit  : 0/0
  3670 ;;		Unchanged: 0/0
  3671 ;; Data sizes:     COMRAM   BANK5   BANK6   BANK7   BANK8   BANK9  BANK10  BANK11  BANK12  BANK13  BANK14  BANK15  BANK1
      +6  BANK17  BANK18  BANK19  BANK20  BANK21  BANK22  BANK23  BANK24  BANK25  BANK26  BANK27  BANK28  BANK29  BANK30  BANK3
      +1  BANK32  BANK33  BANK34  BANK35  BANK36  BANK37  BANK38  BANK39  BANK40  BANK41  BANK42  BANK43  BANK44  BANK45  BANK4
      +6  BANK47  BANK48  BANK49  BANK50  BANK51  BANK52  BANK53  BANK54  BANK55
  3672 ;;      Params:        10       0       0       0       0       0       0       0       0       0       0       0       
      +0       0       0       0       0       0       0       0       0       0       0       0       0       0       0       
      +0       0       0       0       0       0       0       0       0       0       0       0       0       0       0       
      +0       0       0       0       0       0       0       0       0       0
  3673 ;;      Locals:        18       0       0       0       0       0       0       0       0       0       0       0       
      +0       0       0       0       0       0       0       0       0       0       0       0       0       0       0       
      +0       0       0       0       0       0       0       0       0       0       0       0       0       0       0       
      +0       0       0       0       0       0       0       0       0       0
  3674 ;;      Temps:          8       0       0       0       0       0       0       0       0       0       0       0       
      +0       0       0       0       0       0       0       0       0       0       0       0       0       0       0       
      +0       0       0       0       0       0       0       0       0       0       0       0       0       0       0       
      +0       0       0       0       0       0       0       0       0       0
  3675 ;;      Totals:        36       0       0       0       0       0       0       0       0       0       0       0       
      +0       0       0       0       0       0       0       0       0       0       0       0       0       0       0       
      +0       0       0       0       0       0       0       0       0       0       0       0       0       0       0       
      +0       0       0       0       0       0       0       0       0       0
  3676 ;;Total ram usage:       36 bytes
  3677 ;; Hardware stack levels used: 1
  3678 ;; Hardware stack levels required when called: 5
  3679 ;; This function calls:
  3680 ;;		___aodiv
  3681 ;;		___aomod
  3682 ;;		_abs
  3683 ;;		_pad
  3684 ;; This function is called by:
  3685 ;;		_vfpfcnvrt
  3686 ;; This function uses a non-reentrant model
  3687 ;;
  3688                           
  3689                           	psect	text32
  3690  003846                     __ptext32:
  3691                           	callstack 0
  3692  003846                     _dtoa:
  3693                           	callstack 113
  3694  003846                     
  3695                           ;C:\Program Files\Microchip\xc8\v2.32\pic\sources\c99\common\doprnt.c: 287: static int d
      +                          toa(FILE *fp, long long d);C:\Program Files\Microchip\xc8\v2.32\pic\sources\c99\common\d
      +                          oprnt.c: 288: {;C:\Program Files\Microchip\xc8\v2.32\pic\sources\c99\common\doprnt.c: 28
      +                          9:     int i, p, s, w;;C:\Program Files\Microchip\xc8\v2.32\pic\sources\c99\common\doprn
      +                          t.c: 290:     long long n;;C:\Program Files\Microchip\xc8\v2.32\pic\sources\c99\common\d
      +                          oprnt.c: 293:     n = d;
  3696  003846  C520  F538         	movff	dtoa@d,dtoa@n
  3697  00384A  C521  F539         	movff	dtoa@d+1,dtoa@n+1
  3698  00384E  C522  F53A         	movff	dtoa@d+2,dtoa@n+2
  3699  003852  C523  F53B         	movff	dtoa@d+3,dtoa@n+3
  3700  003856  C524  F53C         	movff	dtoa@d+4,dtoa@n+4
  3701  00385A  C525  F53D         	movff	dtoa@d+5,dtoa@n+5
  3702  00385E  C526  F53E         	movff	dtoa@d+6,dtoa@n+6
  3703  003862  C527  F53F         	movff	dtoa@d+7,dtoa@n+7
  3704  003866                     
  3705                           ;C:\Program Files\Microchip\xc8\v2.32\pic\sources\c99\common\doprnt.c: 294:     s = n < 
      +                          0 ? 1 : 0;
  3706  003866  BE3F               	btfsc	(dtoa@n+7)^(0+1280),7,c
  3707  003868  EF38  F01C         	goto	i2u101_41
  3708  00386C  EF3B  F01C         	goto	i2u101_40
  3709  003870                     i2u101_41:
  3710  003870  0E01               	movlw	1
  3711  003872  EF3C  F01C         	goto	i2u102_40
  3712  003876                     i2u101_40:
  3713  003876  0E00               	movlw	0
  3714  003878                     i2u102_40:
  3715  003878  6E36               	movwf	dtoa@s^(0+1280),c
  3716  00387A  6A37               	clrf	(dtoa@s+1)^(0+1280),c
  3717                           
  3718                           ;C:\Program Files\Microchip\xc8\v2.32\pic\sources\c99\common\doprnt.c: 295:     if (s) {
  3719  00387C  5036               	movf	dtoa@s^(0+1280),w,c
  3720  00387E  1037               	iorwf	(dtoa@s+1)^(0+1280),w,c
  3721  003880  B4D8               	btfsc	status,2,c
  3722  003882  EF45  F01C         	goto	i2u103_41
  3723  003886  EF47  F01C         	goto	i2u103_40
  3724  00388A                     i2u103_41:
  3725  00388A  EF57  F01C         	goto	i2l2320
  3726  00388E                     i2u103_40:
  3727  00388E                     
  3728                           ;C:\Program Files\Microchip\xc8\v2.32\pic\sources\c99\common\doprnt.c: 296:         n = 
      +                          -n;
  3729  00388E  1E3F               	comf	(dtoa@n+7)^(0+1280),f,c
  3730  003890  1E3E               	comf	(dtoa@n+6)^(0+1280),f,c
  3731  003892  1E3D               	comf	(dtoa@n+5)^(0+1280),f,c
  3732  003894  1E3C               	comf	(dtoa@n+4)^(0+1280),f,c
  3733  003896  1E3B               	comf	(dtoa@n+3)^(0+1280),f,c
  3734  003898  1E3A               	comf	(dtoa@n+2)^(0+1280),f,c
  3735  00389A  1E39               	comf	(dtoa@n+1)^(0+1280),f,c
  3736  00389C  6C38               	negf	dtoa@n^(0+1280),c
  3737  00389E  0E00               	movlw	0
  3738  0038A0  2239               	addwfc	(dtoa@n+1)^(0+1280),f,c
  3739  0038A2  223A               	addwfc	(dtoa@n+2)^(0+1280),f,c
  3740  0038A4  223B               	addwfc	(dtoa@n+3)^(0+1280),f,c
  3741  0038A6  223C               	addwfc	(dtoa@n+4)^(0+1280),f,c
  3742  0038A8  223D               	addwfc	(dtoa@n+5)^(0+1280),f,c
  3743  0038AA  223E               	addwfc	(dtoa@n+6)^(0+1280),f,c
  3744  0038AC  223F               	addwfc	(dtoa@n+7)^(0+1280),f,c
  3745  0038AE                     i2l2320:
  3746                           
  3747                           ;C:\Program Files\Microchip\xc8\v2.32\pic\sources\c99\common\doprnt.c: 300:     if (!(pr
      +                          ec < 0)) {
  3748  0038AE  0105               	movlb	5	; () banked
  3749  0038B0  BF6E               	btfsc	(_prec+1)& (0+255),7,b
  3750  0038B2  EF5D  F01C         	goto	i2u104_41
  3751  0038B6  EF5F  F01C         	goto	i2u104_40
  3752  0038BA                     i2u104_41:
  3753  0038BA  EF60  F01C         	goto	i2l2324
  3754  0038BE                     i2u104_40:
  3755  0038BE                     
  3756                           ; BSR set to: 5
  3757                           ;C:\Program Files\Microchip\xc8\v2.32\pic\sources\c99\common\doprnt.c: 301:         flag
      +                          s &= ~(1 << 1);
  3758  0038BE  936F               	bcf	_flags& (0+255),1,b
  3759  0038C0                     i2l2324:
  3760                           
  3761                           ; BSR set to: 5
  3762                           ;C:\Program Files\Microchip\xc8\v2.32\pic\sources\c99\common\doprnt.c: 303:     p = (0 <
      +                           prec) ? prec : 1;
  3763  0038C0  BF6E               	btfsc	(_prec+1)& (0+255),7,b
  3764  0038C2  EF6D  F01C         	goto	i2u105_40
  3765  0038C6  516E               	movf	(_prec+1)& (0+255),w,b
  3766  0038C8  E106               	bnz	i2u105_41
  3767  0038CA  056D               	decf	_prec& (0+255),w,b
  3768  0038CC  B0D8               	btfsc	status,0,c
  3769  0038CE  EF6B  F01C         	goto	i2u105_41
  3770  0038D2  EF6D  F01C         	goto	i2u105_40
  3771  0038D6                     i2u105_41:
  3772  0038D6  EF73  F01C         	goto	i2l1421
  3773  0038DA                     i2u105_40:
  3774  0038DA                     
  3775                           ; BSR set to: 5
  3776  0038DA  0E00               	movlw	0
  3777  0038DC  6E33               	movwf	(dtoa@p+1)^(0+1280),c
  3778  0038DE  0E01               	movlw	1
  3779  0038E0  6E32               	movwf	dtoa@p^(0+1280),c
  3780  0038E2  EF77  F01C         	goto	i2l1423
  3781  0038E6                     i2l1421:
  3782                           
  3783                           ; BSR set to: 5
  3784  0038E6  C56D  F532         	movff	_prec,dtoa@p
  3785  0038EA  C56E  F533         	movff	_prec+1,dtoa@p+1
  3786  0038EE                     i2l1423:
  3787                           
  3788                           ; BSR set to: 5
  3789                           ;C:\Program Files\Microchip\xc8\v2.32\pic\sources\c99\common\doprnt.c: 304:     w = widt
      +                          h;
  3790  0038EE  C56B  F534         	movff	_width,dtoa@w
  3791  0038F2  C56C  F535         	movff	_width+1,dtoa@w+1
  3792  0038F6                     
  3793                           ; BSR set to: 5
  3794                           ;C:\Program Files\Microchip\xc8\v2.32\pic\sources\c99\common\doprnt.c: 305:     if (s ||
      +                           (flags & (1 << 2))) {
  3795  0038F6  5036               	movf	dtoa@s^(0+1280),w,c
  3796  0038F8  1037               	iorwf	(dtoa@s+1)^(0+1280),w,c
  3797  0038FA  A4D8               	btfss	status,2,c
  3798  0038FC  EF82  F01C         	goto	i2u106_41
  3799  003900  EF84  F01C         	goto	i2u106_40
  3800  003904                     i2u106_41:
  3801  003904  EF8B  F01C         	goto	i2l2332
  3802  003908                     i2u106_40:
  3803  003908                     
  3804                           ; BSR set to: 5
  3805  003908  A56F               	btfss	_flags& (0+255),2,b
  3806  00390A  EF89  F01C         	goto	i2u107_41
  3807  00390E  EF8B  F01C         	goto	i2u107_40
  3808  003912                     i2u107_41:
  3809  003912  EF8E  F01C         	goto	i2l2334
  3810  003916                     i2u107_40:
  3811  003916                     i2l2332:
  3812                           
  3813                           ; BSR set to: 5
  3814                           ;C:\Program Files\Microchip\xc8\v2.32\pic\sources\c99\common\doprnt.c: 306:         --w;
  3815  003916  0634               	decf	dtoa@w^(0+1280),f,c
  3816  003918  A0D8               	btfss	status,0,c
  3817  00391A  0635               	decf	(dtoa@w+1)^(0+1280),f,c
  3818  00391C                     i2l2334:
  3819                           
  3820                           ; BSR set to: 5
  3821                           ;C:\Program Files\Microchip\xc8\v2.32\pic\sources\c99\common\doprnt.c: 310:     i = size
      +                          of(dbuf) - 1;
  3822  00391C  0E00               	movlw	0
  3823  00391E  6E41               	movwf	(dtoa@i+1)^(0+1280),c
  3824  003920  0E1F               	movlw	31
  3825  003922  6E40               	movwf	dtoa@i^(0+1280),c
  3826  003924                     
  3827                           ; BSR set to: 5
  3828                           ;C:\Program Files\Microchip\xc8\v2.32\pic\sources\c99\common\doprnt.c: 311:     dbuf[i] 
      +                          = '\0';
  3829  003924  0E00               	movlw	0
  3830  003926  6FA3               	movwf	(_dbuf+31)& (0+255),b
  3831                           
  3832                           ;C:\Program Files\Microchip\xc8\v2.32\pic\sources\c99\common\doprnt.c: 312:     while (!
      +                          (i < 1) && (n || (0 < p) || ((0 < w) && (flags & (1 << 1))))) {
  3833  003928  EF12  F01D         	goto	i2l2348
  3834  00392C                     i2l2338:
  3835                           
  3836                           ;C:\Program Files\Microchip\xc8\v2.32\pic\sources\c99\common\doprnt.c: 313:         --i;
  3837  00392C  0640               	decf	dtoa@i^(0+1280),f,c
  3838  00392E  A0D8               	btfss	status,0,c
  3839  003930  0641               	decf	(dtoa@i+1)^(0+1280),f,c
  3840  003932                     
  3841                           ;C:\Program Files\Microchip\xc8\v2.32\pic\sources\c99\common\doprnt.c: 314:         dbuf
      +                          [i] = (char)((int)'0' + abs(n % 10));
  3842  003932  0E84               	movlw	low _dbuf
  3843  003934  2440               	addwf	dtoa@i^(0+1280),w,c
  3844  003936  6ED9               	movwf	fsr2l,c
  3845  003938  0E05               	movlw	high _dbuf
  3846  00393A  2041               	addwfc	(dtoa@i+1)^(0+1280),w,c
  3847  00393C  6EDA               	movwf	fsr2h,c
  3848  00393E  C538  F501         	movff	dtoa@n,___aomod@dividend
  3849  003942  C539  F502         	movff	dtoa@n+1,___aomod@dividend+1
  3850  003946  C53A  F503         	movff	dtoa@n+2,___aomod@dividend+2
  3851  00394A  C53B  F504         	movff	dtoa@n+3,___aomod@dividend+3
  3852  00394E  C53C  F505         	movff	dtoa@n+4,___aomod@dividend+4
  3853  003952  C53D  F506         	movff	dtoa@n+5,___aomod@dividend+5
  3854  003956  C53E  F507         	movff	dtoa@n+6,___aomod@dividend+6
  3855  00395A  C53F  F508         	movff	dtoa@n+7,___aomod@dividend+7
  3856  00395E  0E0A               	movlw	10
  3857  003960  6E09               	movwf	___aomod@divisor^(0+1280),c
  3858  003962  0E00               	movlw	0
  3859  003964  6E0A               	movwf	(___aomod@divisor+1)^(0+1280),c
  3860  003966  0E00               	movlw	0
  3861  003968  6E0B               	movwf	(___aomod@divisor+2)^(0+1280),c
  3862  00396A  0E00               	movlw	0
  3863  00396C  6E0C               	movwf	(___aomod@divisor+3)^(0+1280),c
  3864  00396E  0E00               	movlw	0
  3865  003970  6E0D               	movwf	(___aomod@divisor+4)^(0+1280),c
  3866  003972  0E00               	movlw	0
  3867  003974  6E0E               	movwf	(___aomod@divisor+5)^(0+1280),c
  3868  003976  0E00               	movlw	0
  3869  003978  6E0F               	movwf	(___aomod@divisor+6)^(0+1280),c
  3870  00397A  0E00               	movlw	0
  3871  00397C  6E10               	movwf	(___aomod@divisor+7)^(0+1280),c
  3872  00397E  EC79  F020         	call	___aomod	;wreg free
  3873  003982  C501  F528         	movff	?___aomod,??_dtoa
  3874  003986  C502  F529         	movff	?___aomod+1,??_dtoa+1
  3875  00398A  C503  F52A         	movff	?___aomod+2,??_dtoa+2
  3876  00398E  C504  F52B         	movff	?___aomod+3,??_dtoa+3
  3877  003992  C505  F52C         	movff	?___aomod+4,??_dtoa+4
  3878  003996  C506  F52D         	movff	?___aomod+5,??_dtoa+5
  3879  00399A  C507  F52E         	movff	?___aomod+6,??_dtoa+6
  3880  00399E  C508  F52F         	movff	?___aomod+7,??_dtoa+7
  3881  0039A2  C528  F513         	movff	??_dtoa,abs@a
  3882  0039A6  C52A  F514         	movff	??_dtoa+2,abs@a+1
  3883  0039AA  EC8D  F023         	call	_abs	;wreg free
  3884  0039AE  5013               	movf	?_abs^(0+1280),w,c
  3885  0039B0  0F30               	addlw	48
  3886  0039B2  6EDF               	movwf	indf2,c
  3887  0039B4                     
  3888                           ;C:\Program Files\Microchip\xc8\v2.32\pic\sources\c99\common\doprnt.c: 315:         --p;
  3889  0039B4  0632               	decf	dtoa@p^(0+1280),f,c
  3890  0039B6  A0D8               	btfss	status,0,c
  3891  0039B8  0633               	decf	(dtoa@p+1)^(0+1280),f,c
  3892  0039BA                     
  3893                           ;C:\Program Files\Microchip\xc8\v2.32\pic\sources\c99\common\doprnt.c: 316:         --w;
  3894  0039BA  0634               	decf	dtoa@w^(0+1280),f,c
  3895  0039BC  A0D8               	btfss	status,0,c
  3896  0039BE  0635               	decf	(dtoa@w+1)^(0+1280),f,c
  3897  0039C0                     
  3898                           ;C:\Program Files\Microchip\xc8\v2.32\pic\sources\c99\common\doprnt.c: 317:         n = 
      +                          n / 10;
  3899  0039C0  C538  F501         	movff	dtoa@n,___aodiv@dividend
  3900  0039C4  C539  F502         	movff	dtoa@n+1,___aodiv@dividend+1
  3901  0039C8  C53A  F503         	movff	dtoa@n+2,___aodiv@dividend+2
  3902  0039CC  C53B  F504         	movff	dtoa@n+3,___aodiv@dividend+3
  3903  0039D0  C53C  F505         	movff	dtoa@n+4,___aodiv@dividend+4
  3904  0039D4  C53D  F506         	movff	dtoa@n+5,___aodiv@dividend+5
  3905  0039D8  C53E  F507         	movff	dtoa@n+6,___aodiv@dividend+6
  3906  0039DC  C53F  F508         	movff	dtoa@n+7,___aodiv@dividend+7
  3907  0039E0  0E0A               	movlw	10
  3908  0039E2  6E09               	movwf	___aodiv@divisor^(0+1280),c
  3909  0039E4  0E00               	movlw	0
  3910  0039E6  6E0A               	movwf	(___aodiv@divisor+1)^(0+1280),c
  3911  0039E8  0E00               	movlw	0
  3912  0039EA  6E0B               	movwf	(___aodiv@divisor+2)^(0+1280),c
  3913  0039EC  0E00               	movlw	0
  3914  0039EE  6E0C               	movwf	(___aodiv@divisor+3)^(0+1280),c
  3915  0039F0  0E00               	movlw	0
  3916  0039F2  6E0D               	movwf	(___aodiv@divisor+4)^(0+1280),c
  3917  0039F4  0E00               	movlw	0
  3918  0039F6  6E0E               	movwf	(___aodiv@divisor+5)^(0+1280),c
  3919  0039F8  0E00               	movlw	0
  3920  0039FA  6E0F               	movwf	(___aodiv@divisor+6)^(0+1280),c
  3921  0039FC  0E00               	movlw	0
  3922  0039FE  6E10               	movwf	(___aodiv@divisor+7)^(0+1280),c
  3923  003A00  ECB5  F01F         	call	___aodiv	;wreg free
  3924  003A04  C501  F538         	movff	?___aodiv,dtoa@n
  3925  003A08  C502  F539         	movff	?___aodiv+1,dtoa@n+1
  3926  003A0C  C503  F53A         	movff	?___aodiv+2,dtoa@n+2
  3927  003A10  C504  F53B         	movff	?___aodiv+3,dtoa@n+3
  3928  003A14  C505  F53C         	movff	?___aodiv+4,dtoa@n+4
  3929  003A18  C506  F53D         	movff	?___aodiv+5,dtoa@n+5
  3930  003A1C  C507  F53E         	movff	?___aodiv+6,dtoa@n+6
  3931  003A20  C508  F53F         	movff	?___aodiv+7,dtoa@n+7
  3932  003A24                     i2l2348:
  3933                           
  3934                           ;C:\Program Files\Microchip\xc8\v2.32\pic\sources\c99\common\doprnt.c: 312:     while (!
      +                          (i < 1) && (n || (0 < p) || ((0 < w) && (flags & (1 << 1))))) {
  3935  003A24  BE41               	btfsc	(dtoa@i+1)^(0+1280),7,c
  3936  003A26  EF1D  F01D         	goto	i2u108_41
  3937  003A2A  5041               	movf	(dtoa@i+1)^(0+1280),w,c
  3938  003A2C  E108               	bnz	i2u108_40
  3939  003A2E  0440               	decf	dtoa@i^(0+1280),w,c
  3940  003A30  A0D8               	btfss	status,0,c
  3941  003A32  EF1D  F01D         	goto	i2u108_41
  3942  003A36  EF1F  F01D         	goto	i2u108_40
  3943  003A3A                     i2u108_41:
  3944  003A3A  EF50  F01D         	goto	i2l2358
  3945  003A3E                     i2u108_40:
  3946  003A3E  5038               	movf	dtoa@n^(0+1280),w,c
  3947  003A40  1039               	iorwf	(dtoa@n+1)^(0+1280),w,c
  3948  003A42  103A               	iorwf	(dtoa@n+2)^(0+1280),w,c
  3949  003A44  103B               	iorwf	(dtoa@n+3)^(0+1280),w,c
  3950  003A46  103C               	iorwf	(dtoa@n+4)^(0+1280),w,c
  3951  003A48  103D               	iorwf	(dtoa@n+5)^(0+1280),w,c
  3952  003A4A  103E               	iorwf	(dtoa@n+6)^(0+1280),w,c
  3953  003A4C  103F               	iorwf	(dtoa@n+7)^(0+1280),w,c
  3954  003A4E  A4D8               	btfss	status,2,c
  3955  003A50  EF2C  F01D         	goto	i2u109_41
  3956  003A54  EF2E  F01D         	goto	i2u109_40
  3957  003A58                     i2u109_41:
  3958  003A58  EF96  F01C         	goto	i2l2338
  3959  003A5C                     i2u109_40:
  3960  003A5C  BE33               	btfsc	(dtoa@p+1)^(0+1280),7,c
  3961  003A5E  EF3B  F01D         	goto	i2u110_40
  3962  003A62  5033               	movf	(dtoa@p+1)^(0+1280),w,c
  3963  003A64  E106               	bnz	i2u110_41
  3964  003A66  0432               	decf	dtoa@p^(0+1280),w,c
  3965  003A68  B0D8               	btfsc	status,0,c
  3966  003A6A  EF39  F01D         	goto	i2u110_41
  3967  003A6E  EF3B  F01D         	goto	i2u110_40
  3968  003A72                     i2u110_41:
  3969  003A72  EF96  F01C         	goto	i2l2338
  3970  003A76                     i2u110_40:
  3971  003A76  BE35               	btfsc	(dtoa@w+1)^(0+1280),7,c
  3972  003A78  EF46  F01D         	goto	i2u111_41
  3973  003A7C  5035               	movf	(dtoa@w+1)^(0+1280),w,c
  3974  003A7E  E108               	bnz	i2u111_40
  3975  003A80  0434               	decf	dtoa@w^(0+1280),w,c
  3976  003A82  A0D8               	btfss	status,0,c
  3977  003A84  EF46  F01D         	goto	i2u111_41
  3978  003A88  EF48  F01D         	goto	i2u111_40
  3979  003A8C                     i2u111_41:
  3980  003A8C  EF50  F01D         	goto	i2l2358
  3981  003A90                     i2u111_40:
  3982  003A90  0105               	movlb	5	; () banked
  3983  003A92  B36F               	btfsc	_flags& (0+255),1,b
  3984  003A94  EF4E  F01D         	goto	i2u112_41
  3985  003A98  EF50  F01D         	goto	i2u112_40
  3986  003A9C                     i2u112_41:
  3987  003A9C  EF96  F01C         	goto	i2l2338
  3988  003AA0                     i2u112_40:
  3989  003AA0                     i2l2358:
  3990                           
  3991                           ;C:\Program Files\Microchip\xc8\v2.32\pic\sources\c99\common\doprnt.c: 321:     if (s ||
      +                           (flags & (1 << 2))) {
  3992  003AA0  5036               	movf	dtoa@s^(0+1280),w,c
  3993  003AA2  1037               	iorwf	(dtoa@s+1)^(0+1280),w,c
  3994  003AA4  A4D8               	btfss	status,2,c
  3995  003AA6  EF57  F01D         	goto	i2u113_41
  3996  003AAA  EF59  F01D         	goto	i2u113_40
  3997  003AAE                     i2u113_41:
  3998  003AAE  EF61  F01D         	goto	i2l2362
  3999  003AB2                     i2u113_40:
  4000  003AB2  0105               	movlb	5	; () banked
  4001  003AB4  A56F               	btfss	_flags& (0+255),2,b
  4002  003AB6  EF5F  F01D         	goto	i2u114_41
  4003  003ABA  EF61  F01D         	goto	i2u114_40
  4004  003ABE                     i2u114_41:
  4005  003ABE  EF80  F01D         	goto	i2l2372
  4006  003AC2                     i2u114_40:
  4007  003AC2                     i2l2362:
  4008                           
  4009                           ;C:\Program Files\Microchip\xc8\v2.32\pic\sources\c99\common\doprnt.c: 322:         --i;
  4010  003AC2  0640               	decf	dtoa@i^(0+1280),f,c
  4011  003AC4  A0D8               	btfss	status,0,c
  4012  003AC6  0641               	decf	(dtoa@i+1)^(0+1280),f,c
  4013  003AC8                     
  4014                           ;C:\Program Files\Microchip\xc8\v2.32\pic\sources\c99\common\doprnt.c: 323:         dbuf
      +                          [i] = s ? '-' : '+';
  4015  003AC8  5036               	movf	dtoa@s^(0+1280),w,c
  4016  003ACA  1037               	iorwf	(dtoa@s+1)^(0+1280),w,c
  4017  003ACC  A4D8               	btfss	status,2,c
  4018  003ACE  EF6B  F01D         	goto	i2u115_41
  4019  003AD2  EF6D  F01D         	goto	i2u115_40
  4020  003AD6                     i2u115_41:
  4021  003AD6  EF73  F01D         	goto	i2l2368
  4022  003ADA                     i2u115_40:
  4023  003ADA  0E00               	movlw	0
  4024  003ADC  6E31               	movwf	(_dtoa$1836+1)^(0+1280),c
  4025  003ADE  0E2B               	movlw	43
  4026  003AE0  6E30               	movwf	_dtoa$1836^(0+1280),c
  4027  003AE2  EF77  F01D         	goto	i2l2370
  4028  003AE6                     i2l2368:
  4029  003AE6  0E00               	movlw	0
  4030  003AE8  6E31               	movwf	(_dtoa$1836+1)^(0+1280),c
  4031  003AEA  0E2D               	movlw	45
  4032  003AEC  6E30               	movwf	_dtoa$1836^(0+1280),c
  4033  003AEE                     i2l2370:
  4034  003AEE  0E84               	movlw	low _dbuf
  4035  003AF0  2440               	addwf	dtoa@i^(0+1280),w,c
  4036  003AF2  6ED9               	movwf	fsr2l,c
  4037  003AF4  0E05               	movlw	high _dbuf
  4038  003AF6  2041               	addwfc	(dtoa@i+1)^(0+1280),w,c
  4039  003AF8  6EDA               	movwf	fsr2h,c
  4040  003AFA  0061  F4C0  F4DF   	movff	_dtoa$1836,indf2
  4041  003B00                     i2l2372:
  4042                           
  4043                           ;C:\Program Files\Microchip\xc8\v2.32\pic\sources\c99\common\doprnt.c: 327:     return p
      +                          ad(fp, &dbuf[i], w);
  4044  003B00  C51E  F513         	movff	dtoa@fp,pad@fp
  4045  003B04  C51F  F514         	movff	dtoa@fp+1,pad@fp+1
  4046  003B08  0E84               	movlw	low _dbuf
  4047  003B0A  2440               	addwf	dtoa@i^(0+1280),w,c
  4048  003B0C  6E15               	movwf	pad@buf^(0+1280),c
  4049  003B0E  0E05               	movlw	high _dbuf
  4050  003B10  2041               	addwfc	(dtoa@i+1)^(0+1280),w,c
  4051  003B12  6E16               	movwf	(pad@buf+1)^(0+1280),c
  4052  003B14  C534  F517         	movff	dtoa@w,pad@p
  4053  003B18  C535  F518         	movff	dtoa@w+1,pad@p+1
  4054  003B1C  ECD5  F021         	call	_pad	;wreg free
  4055  003B20  C513  F51E         	movff	?_pad,?_dtoa
  4056  003B24  C514  F51F         	movff	?_pad+1,?_dtoa+1
  4057  003B28  0012               	return		;funcret
  4058  003B2A                     __end_of_dtoa:
  4059                           	callstack 0
  4060                           
  4061 ;; *************** function _pad *****************
  4062 ;; Defined at:
  4063 ;;		line 72 in file "C:\Program Files\Microchip\xc8\v2.32\pic\sources\c99\common\doprnt.c"
  4064 ;; Parameters:    Size  Location     Type
  4065 ;;  fp              2   18[COMRAM] PTR struct _IO_FILE
  4066 ;;		 -> NULL(0), 
  4067 ;;  buf             2   20[COMRAM] PTR unsigned char 
  4068 ;;		 -> dbuf(32), 
  4069 ;;  p               2   22[COMRAM] int 
  4070 ;; Auto vars:     Size  Location     Type
  4071 ;;  w               2   27[COMRAM] int 
  4072 ;;  i               2   25[COMRAM] int 
  4073 ;; Return value:  Size  Location     Type
  4074 ;;                  2   18[COMRAM] int 
  4075 ;; Registers used:
  4076 ;;		wreg, fsr1l, fsr1h, fsr2l, fsr2h, status,2, status,0, cstack
  4077 ;; Tracked objects:
  4078 ;;		On entry : 0/0
  4079 ;;		On exit  : 0/0
  4080 ;;		Unchanged: 0/0
  4081 ;; Data sizes:     COMRAM   BANK5   BANK6   BANK7   BANK8   BANK9  BANK10  BANK11  BANK12  BANK13  BANK14  BANK15  BANK1
      +6  BANK17  BANK18  BANK19  BANK20  BANK21  BANK22  BANK23  BANK24  BANK25  BANK26  BANK27  BANK28  BANK29  BANK30  BANK3
      +1  BANK32  BANK33  BANK34  BANK35  BANK36  BANK37  BANK38  BANK39  BANK40  BANK41  BANK42  BANK43  BANK44  BANK45  BANK4
      +6  BANK47  BANK48  BANK49  BANK50  BANK51  BANK52  BANK53  BANK54  BANK55
  4082 ;;      Params:         6       0       0       0       0       0       0       0       0       0       0       0       
      +0       0       0       0       0       0       0       0       0       0       0       0       0       0       0       
      +0       0       0       0       0       0       0       0       0       0       0       0       0       0       0       
      +0       0       0       0       0       0       0       0       0       0
  4083 ;;      Locals:         4       0       0       0       0       0       0       0       0       0       0       0       
      +0       0       0       0       0       0       0       0       0       0       0       0       0       0       0       
      +0       0       0       0       0       0       0       0       0       0       0       0       0       0       0       
      +0       0       0       0       0       0       0       0       0       0
  4084 ;;      Temps:          1       0       0       0       0       0       0       0       0       0       0       0       
      +0       0       0       0       0       0       0       0       0       0       0       0       0       0       0       
      +0       0       0       0       0       0       0       0       0       0       0       0       0       0       0       
      +0       0       0       0       0       0       0       0       0       0
  4085 ;;      Totals:        11       0       0       0       0       0       0       0       0       0       0       0       
      +0       0       0       0       0       0       0       0       0       0       0       0       0       0       0       
      +0       0       0       0       0       0       0       0       0       0       0       0       0       0       0       
      +0       0       0       0       0       0       0       0       0       0
  4086 ;;Total ram usage:       11 bytes
  4087 ;; Hardware stack levels used: 1
  4088 ;; Hardware stack levels required when called: 4
  4089 ;; This function calls:
  4090 ;;		_fputc
  4091 ;;		_fputs
  4092 ;;		_strlen
  4093 ;; This function is called by:
  4094 ;;		_dtoa
  4095 ;; This function uses a non-reentrant model
  4096 ;;
  4097                           
  4098                           	psect	text33
  4099  0043AA                     __ptext33:
  4100                           	callstack 0
  4101  0043AA                     _pad:
  4102                           	callstack 113
  4103  0043AA                     
  4104                           ;C:\Program Files\Microchip\xc8\v2.32\pic\sources\c99\common\doprnt.c: 72: static int pa
      +                          d(FILE *fp, char *buf, int p);C:\Program Files\Microchip\xc8\v2.32\pic\sources\c99\commo
      +                          n\doprnt.c: 73: {;C:\Program Files\Microchip\xc8\v2.32\pic\sources\c99\common\doprnt.c: 
      +                          74:     int i, w;;C:\Program Files\Microchip\xc8\v2.32\pic\sources\c99\common\doprnt.c: 
      +                          77:     if (flags & (1 << 0)) {
  4105  0043AA  0105               	movlb	5	; () banked
  4106  0043AC  A16F               	btfss	_flags& (0+255),0,b
  4107  0043AE  EFDB  F021         	goto	i2u96_41
  4108  0043B2  EFDD  F021         	goto	i2u96_40
  4109  0043B6                     i2u96_41:
  4110  0043B6  EFE7  F021         	goto	i2l2292
  4111  0043BA                     i2u96_40:
  4112  0043BA                     
  4113                           ; BSR set to: 5
  4114                           ;C:\Program Files\Microchip\xc8\v2.32\pic\sources\c99\common\doprnt.c: 78:         fputs
      +                          ((const char *)buf, fp);
  4115  0043BA  C515  F50C         	movff	pad@buf,fputs@s
  4116  0043BE  C516  F50D         	movff	pad@buf+1,fputs@s+1
  4117  0043C2  C513  F50E         	movff	pad@fp,fputs@fp
  4118  0043C6  C514  F50F         	movff	pad@fp+1,fputs@fp+1
  4119  0043CA  EC6B  F023         	call	_fputs	;wreg free
  4120  0043CE                     i2l2292:
  4121                           
  4122                           ;C:\Program Files\Microchip\xc8\v2.32\pic\sources\c99\common\doprnt.c: 82:     w = (p < 
      +                          0) ? 0 : p;
  4123  0043CE  BE18               	btfsc	(pad@p+1)^(0+1280),7,c
  4124  0043D0  EFEC  F021         	goto	i2u97_41
  4125  0043D4  EFEE  F021         	goto	i2u97_40
  4126  0043D8                     i2u97_41:
  4127  0043D8  EFF4  F021         	goto	i2l2296
  4128  0043DC                     i2u97_40:
  4129  0043DC  C517  F51C         	movff	pad@p,pad@w
  4130  0043E0  C518  F51D         	movff	pad@p+1,pad@w+1
  4131  0043E4  EFF8  F021         	goto	i2l1410
  4132  0043E8                     i2l2296:
  4133  0043E8  0E00               	movlw	0
  4134  0043EA  6E1D               	movwf	(pad@w+1)^(0+1280),c
  4135  0043EC  0E00               	movlw	0
  4136  0043EE  6E1C               	movwf	pad@w^(0+1280),c
  4137  0043F0                     i2l1410:
  4138                           
  4139                           ;C:\Program Files\Microchip\xc8\v2.32\pic\sources\c99\common\doprnt.c: 83:     i = 0;
  4140  0043F0  0E00               	movlw	0
  4141  0043F2  6E1B               	movwf	(pad@i+1)^(0+1280),c
  4142  0043F4  0E00               	movlw	0
  4143  0043F6  6E1A               	movwf	pad@i^(0+1280),c
  4144                           
  4145                           ;C:\Program Files\Microchip\xc8\v2.32\pic\sources\c99\common\doprnt.c: 84:     while (i 
      +                          < w) {
  4146  0043F8  EF0A  F022         	goto	i2l2302
  4147  0043FC                     i2l2298:
  4148                           
  4149                           ;C:\Program Files\Microchip\xc8\v2.32\pic\sources\c99\common\doprnt.c: 85:         fputc
      +                          (' ', fp);
  4150  0043FC  0E00               	movlw	0
  4151  0043FE  6E04               	movwf	(fputc@c+1)^(0+1280),c
  4152  004400  0E20               	movlw	32
  4153  004402  6E03               	movwf	fputc@c^(0+1280),c
  4154  004404  C513  F505         	movff	pad@fp,fputc@fp
  4155  004408  C514  F506         	movff	pad@fp+1,fputc@fp+1
  4156  00440C  EC84  F022         	call	_fputc	;wreg free
  4157  004410                     
  4158                           ;C:\Program Files\Microchip\xc8\v2.32\pic\sources\c99\common\doprnt.c: 86:         ++i;
  4159  004410  4A1A               	infsnz	pad@i^(0+1280),f,c
  4160  004412  2A1B               	incf	(pad@i+1)^(0+1280),f,c
  4161  004414                     i2l2302:
  4162                           
  4163                           ;C:\Program Files\Microchip\xc8\v2.32\pic\sources\c99\common\doprnt.c: 84:     while (i 
      +                          < w) {
  4164  004414  501C               	movf	pad@w^(0+1280),w,c
  4165  004416  5C1A               	subwf	pad@i^(0+1280),w,c
  4166  004418  501B               	movf	(pad@i+1)^(0+1280),w,c
  4167  00441A  0A80               	xorlw	128
  4168  00441C  6E19               	movwf	??_pad^(0+1280),c
  4169  00441E  501D               	movf	(pad@w+1)^(0+1280),w,c
  4170  004420  0A80               	xorlw	128
  4171  004422  5819               	subwfb	??_pad^(0+1280),w,c
  4172  004424  A0D8               	btfss	status,0,c
  4173  004426  EF17  F022         	goto	i2u98_41
  4174  00442A  EF19  F022         	goto	i2u98_40
  4175  00442E                     i2u98_41:
  4176  00442E  EFFE  F021         	goto	i2l2298
  4177  004432                     i2u98_40:
  4178  004432                     
  4179                           ;C:\Program Files\Microchip\xc8\v2.32\pic\sources\c99\common\doprnt.c: 90:     if (!(fla
      +                          gs & (1 << 0))) {
  4180  004432  0105               	movlb	5	; () banked
  4181  004434  B16F               	btfsc	_flags& (0+255),0,b
  4182  004436  EF1F  F022         	goto	i2u99_41
  4183  00443A  EF21  F022         	goto	i2u99_40
  4184  00443E                     i2u99_41:
  4185  00443E  EF2B  F022         	goto	i2l2306
  4186  004442                     i2u99_40:
  4187  004442                     
  4188                           ; BSR set to: 5
  4189                           ;C:\Program Files\Microchip\xc8\v2.32\pic\sources\c99\common\doprnt.c: 91:         fputs
      +                          ((const char *)buf, fp);
  4190  004442  C515  F50C         	movff	pad@buf,fputs@s
  4191  004446  C516  F50D         	movff	pad@buf+1,fputs@s+1
  4192  00444A  C513  F50E         	movff	pad@fp,fputs@fp
  4193  00444E  C514  F50F         	movff	pad@fp+1,fputs@fp+1
  4194  004452  EC6B  F023         	call	_fputs	;wreg free
  4195  004456                     i2l2306:
  4196                           
  4197                           ;C:\Program Files\Microchip\xc8\v2.32\pic\sources\c99\common\doprnt.c: 94:     return (i
      +                          nt)(strlen(buf) + (size_t)w);
  4198  004456  C515  F501         	movff	pad@buf,strlen@s
  4199  00445A  C516  F502         	movff	pad@buf+1,strlen@s+1
  4200  00445E  ECAD  F023         	call	_strlen	;wreg free
  4201  004462  501C               	movf	pad@w^(0+1280),w,c
  4202  004464  2401               	addwf	?_strlen^(0+1280),w,c
  4203  004466  6E13               	movwf	?_pad^(0+1280),c
  4204  004468  501D               	movf	(pad@w+1)^(0+1280),w,c
  4205  00446A  2002               	addwfc	(?_strlen+1)^(0+1280),w,c
  4206  00446C  6E14               	movwf	(?_pad+1)^(0+1280),c
  4207  00446E  0012               	return		;funcret
  4208  004470                     __end_of_pad:
  4209                           	callstack 0
  4210                           
  4211 ;; *************** function _strlen *****************
  4212 ;; Defined at:
  4213 ;;		line 5 in file "C:\Program Files\Microchip\xc8\v2.32\pic\sources\c99\common\strlen.c"
  4214 ;; Parameters:    Size  Location     Type
  4215 ;;  s               2    0[COMRAM] PTR const unsigned char 
  4216 ;;		 -> dbuf(32), 
  4217 ;; Auto vars:     Size  Location     Type
  4218 ;;  a               2    2[COMRAM] PTR const unsigned char 
  4219 ;;		 -> dbuf(32), 
  4220 ;; Return value:  Size  Location     Type
  4221 ;;                  2    0[COMRAM] unsigned int 
  4222 ;; Registers used:
  4223 ;;		wreg, fsr2l, fsr2h, status,2, status,0
  4224 ;; Tracked objects:
  4225 ;;		On entry : 0/0
  4226 ;;		On exit  : 0/0
  4227 ;;		Unchanged: 0/0
  4228 ;; Data sizes:     COMRAM   BANK5   BANK6   BANK7   BANK8   BANK9  BANK10  BANK11  BANK12  BANK13  BANK14  BANK15  BANK1
      +6  BANK17  BANK18  BANK19  BANK20  BANK21  BANK22  BANK23  BANK24  BANK25  BANK26  BANK27  BANK28  BANK29  BANK30  BANK3
      +1  BANK32  BANK33  BANK34  BANK35  BANK36  BANK37  BANK38  BANK39  BANK40  BANK41  BANK42  BANK43  BANK44  BANK45  BANK4
      +6  BANK47  BANK48  BANK49  BANK50  BANK51  BANK52  BANK53  BANK54  BANK55
  4229 ;;      Params:         2       0       0       0       0       0       0       0       0       0       0       0       
      +0       0       0       0       0       0       0       0       0       0       0       0       0       0       0       
      +0       0       0       0       0       0       0       0       0       0       0       0       0       0       0       
      +0       0       0       0       0       0       0       0       0       0
  4230 ;;      Locals:         2       0       0       0       0       0       0       0       0       0       0       0       
      +0       0       0       0       0       0       0       0       0       0       0       0       0       0       0       
      +0       0       0       0       0       0       0       0       0       0       0       0       0       0       0       
      +0       0       0       0       0       0       0       0       0       0
  4231 ;;      Temps:          0       0       0       0       0       0       0       0       0       0       0       0       
      +0       0       0       0       0       0       0       0       0       0       0       0       0       0       0       
      +0       0       0       0       0       0       0       0       0       0       0       0       0       0       0       
      +0       0       0       0       0       0       0       0       0       0
  4232 ;;      Totals:         4       0       0       0       0       0       0       0       0       0       0       0       
      +0       0       0       0       0       0       0       0       0       0       0       0       0       0       0       
      +0       0       0       0       0       0       0       0       0       0       0       0       0       0       0       
      +0       0       0       0       0       0       0       0       0       0
  4233 ;;Total ram usage:        4 bytes
  4234 ;; Hardware stack levels used: 1
  4235 ;; This function calls:
  4236 ;;		Nothing
  4237 ;; This function is called by:
  4238 ;;		_pad
  4239 ;; This function uses a non-reentrant model
  4240 ;;
  4241                           
  4242                           	psect	text34
  4243  00475A                     __ptext34:
  4244                           	callstack 0
  4245  00475A                     _strlen:
  4246                           	callstack 116
  4247  00475A  C501  F503         	movff	strlen@s,strlen@a
  4248  00475E  C502  F504         	movff	strlen@s+1,strlen@a+1
  4249  004762  EFB5  F023         	goto	i2l2202
  4250  004766                     i2l2200:
  4251  004766  4A01               	infsnz	strlen@s^(0+1280),f,c
  4252  004768  2A02               	incf	(strlen@s+1)^(0+1280),f,c
  4253  00476A                     i2l2202:
  4254  00476A  0061  F404  F4D9   	movff	strlen@s,fsr2l
  4255  004770  0061  F408  F4DA   	movff	strlen@s+1,fsr2h
  4256  004776  50DF               	movf	indf2,w,c
  4257  004778  A4D8               	btfss	status,2,c
  4258  00477A  EFC1  F023         	goto	i2u82_41
  4259  00477E  EFC3  F023         	goto	i2u82_40
  4260  004782                     i2u82_41:
  4261  004782  EFB3  F023         	goto	i2l2200
  4262  004786                     i2u82_40:
  4263  004786  5003               	movf	strlen@a^(0+1280),w,c
  4264  004788  5C01               	subwf	strlen@s^(0+1280),w,c
  4265  00478A  6E01               	movwf	?_strlen^(0+1280),c
  4266  00478C  5004               	movf	(strlen@a+1)^(0+1280),w,c
  4267  00478E  5802               	subwfb	(strlen@s+1)^(0+1280),w,c
  4268  004790  6E02               	movwf	(?_strlen+1)^(0+1280),c
  4269  004792  0012               	return		;funcret
  4270  004794                     __end_of_strlen:
  4271                           	callstack 0
  4272                           
  4273 ;; *************** function _fputs *****************
  4274 ;; Defined at:
  4275 ;;		line 8 in file "C:\Program Files\Microchip\xc8\v2.32\pic\sources\c99\common\nf_fputs.c"
  4276 ;; Parameters:    Size  Location     Type
  4277 ;;  s               2   11[COMRAM] PTR const unsigned char 
  4278 ;;		 -> dbuf(32), 
  4279 ;;  fp              2   13[COMRAM] PTR struct _IO_FILE
  4280 ;;		 -> NULL(0), 
  4281 ;; Auto vars:     Size  Location     Type
  4282 ;;  i               2   16[COMRAM] int 
  4283 ;;  c               1   15[COMRAM] unsigned char 
  4284 ;; Return value:  Size  Location     Type
  4285 ;;                  2   11[COMRAM] int 
  4286 ;; Registers used:
  4287 ;;		wreg, fsr1l, fsr1h, fsr2l, fsr2h, status,2, status,0, cstack
  4288 ;; Tracked objects:
  4289 ;;		On entry : 0/0
  4290 ;;		On exit  : 0/0
  4291 ;;		Unchanged: 0/0
  4292 ;; Data sizes:     COMRAM   BANK5   BANK6   BANK7   BANK8   BANK9  BANK10  BANK11  BANK12  BANK13  BANK14  BANK15  BANK1
      +6  BANK17  BANK18  BANK19  BANK20  BANK21  BANK22  BANK23  BANK24  BANK25  BANK26  BANK27  BANK28  BANK29  BANK30  BANK3
      +1  BANK32  BANK33  BANK34  BANK35  BANK36  BANK37  BANK38  BANK39  BANK40  BANK41  BANK42  BANK43  BANK44  BANK45  BANK4
      +6  BANK47  BANK48  BANK49  BANK50  BANK51  BANK52  BANK53  BANK54  BANK55
  4293 ;;      Params:         4       0       0       0       0       0       0       0       0       0       0       0       
      +0       0       0       0       0       0       0       0       0       0       0       0       0       0       0       
      +0       0       0       0       0       0       0       0       0       0       0       0       0       0       0       
      +0       0       0       0       0       0       0       0       0       0
  4294 ;;      Locals:         3       0       0       0       0       0       0       0       0       0       0       0       
      +0       0       0       0       0       0       0       0       0       0       0       0       0       0       0       
      +0       0       0       0       0       0       0       0       0       0       0       0       0       0       0       
      +0       0       0       0       0       0       0       0       0       0
  4295 ;;      Temps:          0       0       0       0       0       0       0       0       0       0       0       0       
      +0       0       0       0       0       0       0       0       0       0       0       0       0       0       0       
      +0       0       0       0       0       0       0       0       0       0       0       0       0       0       0       
      +0       0       0       0       0       0       0       0       0       0
  4296 ;;      Totals:         7       0       0       0       0       0       0       0       0       0       0       0       
      +0       0       0       0       0       0       0       0       0       0       0       0       0       0       0       
      +0       0       0       0       0       0       0       0       0       0       0       0       0       0       0       
      +0       0       0       0       0       0       0       0       0       0
  4297 ;;Total ram usage:        7 bytes
  4298 ;; Hardware stack levels used: 1
  4299 ;; Hardware stack levels required when called: 3
  4300 ;; This function calls:
  4301 ;;		_fputc
  4302 ;; This function is called by:
  4303 ;;		_pad
  4304 ;; This function uses a non-reentrant model
  4305 ;;
  4306                           
  4307                           	psect	text35
  4308  0046D6                     __ptext35:
  4309                           	callstack 0
  4310  0046D6                     _fputs:
  4311                           	callstack 113
  4312  0046D6  0E00               	movlw	0
  4313  0046D8  6E12               	movwf	(fputs@i+1)^(0+1280),c
  4314  0046DA  0E00               	movlw	0
  4315  0046DC  6E11               	movwf	fputs@i^(0+1280),c
  4316  0046DE  EF7C  F023         	goto	i2l2196
  4317  0046E2                     i2l2192:
  4318  0046E2  C510  F503         	movff	fputs@c,fputc@c
  4319  0046E6  6A04               	clrf	(fputc@c+1)^(0+1280),c
  4320  0046E8  C50E  F505         	movff	fputs@fp,fputc@fp
  4321  0046EC  C50F  F506         	movff	fputs@fp+1,fputc@fp+1
  4322  0046F0  EC84  F022         	call	_fputc	;wreg free
  4323  0046F4  4A11               	infsnz	fputs@i^(0+1280),f,c
  4324  0046F6  2A12               	incf	(fputs@i+1)^(0+1280),f,c
  4325  0046F8                     i2l2196:
  4326  0046F8  5011               	movf	fputs@i^(0+1280),w,c
  4327  0046FA  240C               	addwf	fputs@s^(0+1280),w,c
  4328  0046FC  6ED9               	movwf	fsr2l,c
  4329  0046FE  5012               	movf	(fputs@i+1)^(0+1280),w,c
  4330  004700  200D               	addwfc	(fputs@s+1)^(0+1280),w,c
  4331  004702  6EDA               	movwf	fsr2h,c
  4332  004704  50DF               	movf	indf2,w,c
  4333  004706  6E10               	movwf	fputs@c^(0+1280),c
  4334  004708  5010               	movf	fputs@c^(0+1280),w,c
  4335  00470A  A4D8               	btfss	status,2,c
  4336  00470C  EF8A  F023         	goto	i2u81_41
  4337  004710  EF8C  F023         	goto	i2u81_40
  4338  004714                     i2u81_41:
  4339  004714  EF71  F023         	goto	i2l2192
  4340  004718                     i2u81_40:
  4341  004718  0012               	return		;funcret
  4342  00471A                     __end_of_fputs:
  4343                           	callstack 0
  4344                           
  4345 ;; *************** function _fputc *****************
  4346 ;; Defined at:
  4347 ;;		line 8 in file "C:\Program Files\Microchip\xc8\v2.32\pic\sources\c99\common\nf_fputc.c"
  4348 ;; Parameters:    Size  Location     Type
  4349 ;;  c               2    2[COMRAM] int 
  4350 ;;  fp              2    4[COMRAM] PTR struct _IO_FILE
  4351 ;;		 -> NULL(0), 
  4352 ;; Auto vars:     Size  Location     Type
  4353 ;;		None
  4354 ;; Return value:  Size  Location     Type
  4355 ;;                  2    2[COMRAM] int 
  4356 ;; Registers used:
  4357 ;;		wreg, fsr1l, fsr1h, fsr2l, fsr2h, status,2, status,0, cstack
  4358 ;; Tracked objects:
  4359 ;;		On entry : 0/0
  4360 ;;		On exit  : 0/0
  4361 ;;		Unchanged: 0/0
  4362 ;; Data sizes:     COMRAM   BANK5   BANK6   BANK7   BANK8   BANK9  BANK10  BANK11  BANK12  BANK13  BANK14  BANK15  BANK1
      +6  BANK17  BANK18  BANK19  BANK20  BANK21  BANK22  BANK23  BANK24  BANK25  BANK26  BANK27  BANK28  BANK29  BANK30  BANK3
      +1  BANK32  BANK33  BANK34  BANK35  BANK36  BANK37  BANK38  BANK39  BANK40  BANK41  BANK42  BANK43  BANK44  BANK45  BANK4
      +6  BANK47  BANK48  BANK49  BANK50  BANK51  BANK52  BANK53  BANK54  BANK55
  4363 ;;      Params:         4       0       0       0       0       0       0       0       0       0       0       0       
      +0       0       0       0       0       0       0       0       0       0       0       0       0       0       0       
      +0       0       0       0       0       0       0       0       0       0       0       0       0       0       0       
      +0       0       0       0       0       0       0       0       0       0
  4364 ;;      Locals:         0       0       0       0       0       0       0       0       0       0       0       0       
      +0       0       0       0       0       0       0       0       0       0       0       0       0       0       0       
      +0       0       0       0       0       0       0       0       0       0       0       0       0       0       0       
      +0       0       0       0       0       0       0       0       0       0
  4365 ;;      Temps:          5       0       0       0       0       0       0       0       0       0       0       0       
      +0       0       0       0       0       0       0       0       0       0       0       0       0       0       0       
      +0       0       0       0       0       0       0       0       0       0       0       0       0       0       0       
      +0       0       0       0       0       0       0       0       0       0
  4366 ;;      Totals:         9       0       0       0       0       0       0       0       0       0       0       0       
      +0       0       0       0       0       0       0       0       0       0       0       0       0       0       0       
      +0       0       0       0       0       0       0       0       0       0       0       0       0       0       0       
      +0       0       0       0       0       0       0       0       0       0
  4367 ;;Total ram usage:        9 bytes
  4368 ;; Hardware stack levels used: 1
  4369 ;; Hardware stack levels required when called: 2
  4370 ;; This function calls:
  4371 ;;		_putch
  4372 ;; This function is called by:
  4373 ;;		_pad
  4374 ;;		_vfpfcnvrt
  4375 ;;		_fputs
  4376 ;; This function uses a non-reentrant model
  4377 ;;
  4378                           
  4379                           	psect	text36
  4380  004508                     __ptext36:
  4381                           	callstack 0
  4382  004508                     _fputc:
  4383                           	callstack 116
  4384  004508  5005               	movf	fputc@fp^(0+1280),w,c
  4385  00450A  1006               	iorwf	(fputc@fp+1)^(0+1280),w,c
  4386  00450C  B4D8               	btfsc	status,2,c
  4387  00450E  EF8B  F022         	goto	i2u77_41
  4388  004512  EF8D  F022         	goto	i2u77_40
  4389  004516                     i2u77_41:
  4390  004516  EF96  F022         	goto	i2l2180
  4391  00451A                     i2u77_40:
  4392  00451A  5005               	movf	fputc@fp^(0+1280),w,c
  4393  00451C  1006               	iorwf	(fputc@fp+1)^(0+1280),w,c
  4394  00451E  A4D8               	btfss	status,2,c
  4395  004520  EF94  F022         	goto	i2u78_41
  4396  004524  EF96  F022         	goto	i2u78_40
  4397  004528                     i2u78_41:
  4398  004528  EF9B  F022         	goto	i2l2182
  4399  00452C                     i2u78_40:
  4400  00452C                     i2l2180:
  4401  00452C  5003               	movf	fputc@c^(0+1280),w,c
  4402  00452E  ECC2  F024         	call	_putch
  4403  004532  EFCE  F022         	goto	i2l1474
  4404  004536                     i2l2182:
  4405  004536  EE20 F004          	lfsr	2,4
  4406  00453A  5005               	movf	fputc@fp^(0+1280),w,c
  4407  00453C  26D9               	addwf	fsr2l,f,c
  4408  00453E  5006               	movf	(fputc@fp+1)^(0+1280),w,c
  4409  004540  22DA               	addwfc	fsr2h,f,c
  4410  004542  50DE               	movf	postinc2,w,c
  4411  004544  10DE               	iorwf	postinc2,w,c
  4412  004546  B4D8               	btfsc	status,2,c
  4413  004548  EFA8  F022         	goto	i2u79_41
  4414  00454C  EFAA  F022         	goto	i2u79_40
  4415  004550                     i2u79_41:
  4416  004550  EFC5  F022         	goto	i2l2186
  4417  004554                     i2u79_40:
  4418  004554  EE20 F004          	lfsr	2,4
  4419  004558  5005               	movf	fputc@fp^(0+1280),w,c
  4420  00455A  26D9               	addwf	fsr2l,f,c
  4421  00455C  5006               	movf	(fputc@fp+1)^(0+1280),w,c
  4422  00455E  22DA               	addwfc	fsr2h,f,c
  4423  004560  EE10 F002          	lfsr	1,2
  4424  004564  5005               	movf	fputc@fp^(0+1280),w,c
  4425  004566  26E1               	addwf	fsr1l,f,c
  4426  004568  5006               	movf	(fputc@fp+1)^(0+1280),w,c
  4427  00456A  22E2               	addwfc	fsr1h,f,c
  4428  00456C  50DE               	movf	postinc2,w,c
  4429  00456E  5CE6               	subwf	postinc1,w,c
  4430  004570  50E6               	movf	postinc1,w,c
  4431  004572  0A80               	xorlw	128
  4432  004574  6E0B               	movwf	(??_fputc+4)^(0+1280),c
  4433  004576  50DE               	movf	postinc2,w,c
  4434  004578  0A80               	xorlw	128
  4435  00457A  580B               	subwfb	(??_fputc+4)^(0+1280),w,c
  4436  00457C  B0D8               	btfsc	status,0,c
  4437  00457E  EFC3  F022         	goto	i2u80_41
  4438  004582  EFC5  F022         	goto	i2u80_40
  4439  004586                     i2u80_41:
  4440  004586  EFCE  F022         	goto	i2l1474
  4441  00458A                     i2u80_40:
  4442  00458A                     i2l2186:
  4443  00458A  EE20 F002          	lfsr	2,2
  4444  00458E  5005               	movf	fputc@fp^(0+1280),w,c
  4445  004590  26D9               	addwf	fsr2l,f,c
  4446  004592  5006               	movf	(fputc@fp+1)^(0+1280),w,c
  4447  004594  22DA               	addwfc	fsr2h,f,c
  4448  004596  2ADE               	incf	postinc2,f,c
  4449  004598  0E00               	movlw	0
  4450  00459A  22DD               	addwfc	postdec2,f,c
  4451  00459C                     i2l1474:
  4452  00459C  0012               	return		;funcret
  4453  00459E                     __end_of_fputc:
  4454                           	callstack 0
  4455                           
  4456 ;; *************** function _putch *****************
  4457 ;; Defined at:
  4458 ;;		line 184 in file "mcc_generated_files/uart1.c"
  4459 ;; Parameters:    Size  Location     Type
  4460 ;;  txData          1    wreg     unsigned char 
  4461 ;; Auto vars:     Size  Location     Type
  4462 ;;  txData          1    1[COMRAM] unsigned char 
  4463 ;; Return value:  Size  Location     Type
  4464 ;;                  1    wreg      void 
  4465 ;; Registers used:
  4466 ;;		wreg, status,2, cstack
  4467 ;; Tracked objects:
  4468 ;;		On entry : 0/0
  4469 ;;		On exit  : 0/0
  4470 ;;		Unchanged: 0/0
  4471 ;; Data sizes:     COMRAM   BANK5   BANK6   BANK7   BANK8   BANK9  BANK10  BANK11  BANK12  BANK13  BANK14  BANK15  BANK1
      +6  BANK17  BANK18  BANK19  BANK20  BANK21  BANK22  BANK23  BANK24  BANK25  BANK26  BANK27  BANK28  BANK29  BANK30  BANK3
      +1  BANK32  BANK33  BANK34  BANK35  BANK36  BANK37  BANK38  BANK39  BANK40  BANK41  BANK42  BANK43  BANK44  BANK45  BANK4
      +6  BANK47  BANK48  BANK49  BANK50  BANK51  BANK52  BANK53  BANK54  BANK55
  4472 ;;      Params:         0       0       0       0       0       0       0       0       0       0       0       0       
      +0       0       0       0       0       0       0       0       0       0       0       0       0       0       0       
      +0       0       0       0       0       0       0       0       0       0       0       0       0       0       0       
      +0       0       0       0       0       0       0       0       0       0
  4473 ;;      Locals:         1       0       0       0       0       0       0       0       0       0       0       0       
      +0       0       0       0       0       0       0       0       0       0       0       0       0       0       0       
      +0       0       0       0       0       0       0       0       0       0       0       0       0       0       0       
      +0       0       0       0       0       0       0       0       0       0
  4474 ;;      Temps:          0       0       0       0       0       0       0       0       0       0       0       0       
      +0       0       0       0       0       0       0       0       0       0       0       0       0       0       0       
      +0       0       0       0       0       0       0       0       0       0       0       0       0       0       0       
      +0       0       0       0       0       0       0       0       0       0
  4475 ;;      Totals:         1       0       0       0       0       0       0       0       0       0       0       0       
      +0       0       0       0       0       0       0       0       0       0       0       0       0       0       0       
      +0       0       0       0       0       0       0       0       0       0       0       0       0       0       0       
      +0       0       0       0       0       0       0       0       0       0
  4476 ;;Total ram usage:        1 bytes
  4477 ;; Hardware stack levels used: 1
  4478 ;; Hardware stack levels required when called: 1
  4479 ;; This function calls:
  4480 ;;		_UART1_Write
  4481 ;; This function is called by:
  4482 ;;		_fputc
  4483 ;; This function uses a non-reentrant model
  4484 ;;
  4485                           
  4486                           	psect	text37
  4487  004984                     __ptext37:
  4488                           	callstack 0
  4489  004984                     _putch:
  4490                           	callstack 116
  4491                           
  4492                           ;incstack = 0
  4493                           ;putch@txData stored from wreg
  4494  004984  6E02               	movwf	putch@txData^(0+1280),c
  4495  004986                     
  4496                           ;mcc_generated_files/uart1.c: 184: void putch(char txData);mcc_generated_files/uart1.c: 
      +                          185: {;mcc_generated_files/uart1.c: 186:     UART1_Write(txData);
  4497  004986  5002               	movf	putch@txData^(0+1280),w,c
  4498  004988  EC56  F024         	call	_UART1_Write
  4499  00498C  0012               	return		;funcret
  4500  00498E                     __end_of_putch:
  4501                           	callstack 0
  4502                           
  4503 ;; *************** function _UART1_Write *****************
  4504 ;; Defined at:
  4505 ;;		line 170 in file "mcc_generated_files/uart1.c"
  4506 ;; Parameters:    Size  Location     Type
  4507 ;;  txData          1    wreg     unsigned char 
  4508 ;; Auto vars:     Size  Location     Type
  4509 ;;  txData          1    0[COMRAM] unsigned char 
  4510 ;; Return value:  Size  Location     Type
  4511 ;;                  1    wreg      void 
  4512 ;; Registers used:
  4513 ;;		wreg
  4514 ;; Tracked objects:
  4515 ;;		On entry : 0/0
  4516 ;;		On exit  : 0/0
  4517 ;;		Unchanged: 0/0
  4518 ;; Data sizes:     COMRAM   BANK5   BANK6   BANK7   BANK8   BANK9  BANK10  BANK11  BANK12  BANK13  BANK14  BANK15  BANK1
      +6  BANK17  BANK18  BANK19  BANK20  BANK21  BANK22  BANK23  BANK24  BANK25  BANK26  BANK27  BANK28  BANK29  BANK30  BANK3
      +1  BANK32  BANK33  BANK34  BANK35  BANK36  BANK37  BANK38  BANK39  BANK40  BANK41  BANK42  BANK43  BANK44  BANK45  BANK4
      +6  BANK47  BANK48  BANK49  BANK50  BANK51  BANK52  BANK53  BANK54  BANK55
  4519 ;;      Params:         0       0       0       0       0       0       0       0       0       0       0       0       
      +0       0       0       0       0       0       0       0       0       0       0       0       0       0       0       
      +0       0       0       0       0       0       0       0       0       0       0       0       0       0       0       
      +0       0       0       0       0       0       0       0       0       0
  4520 ;;      Locals:         1       0       0       0       0       0       0       0       0       0       0       0       
      +0       0       0       0       0       0       0       0       0       0       0       0       0       0       0       
      +0       0       0       0       0       0       0       0       0       0       0       0       0       0       0       
      +0       0       0       0       0       0       0       0       0       0
  4521 ;;      Temps:          0       0       0       0       0       0       0       0       0       0       0       0       
      +0       0       0       0       0       0       0       0       0       0       0       0       0       0       0       
      +0       0       0       0       0       0       0       0       0       0       0       0       0       0       0       
      +0       0       0       0       0       0       0       0       0       0
  4522 ;;      Totals:         1       0       0       0       0       0       0       0       0       0       0       0       
      +0       0       0       0       0       0       0       0       0       0       0       0       0       0       0       
      +0       0       0       0       0       0       0       0       0       0       0       0       0       0       0       
      +0       0       0       0       0       0       0       0       0       0
  4523 ;;Total ram usage:        1 bytes
  4524 ;; Hardware stack levels used: 1
  4525 ;; This function calls:
  4526 ;;		Nothing
  4527 ;; This function is called by:
  4528 ;;		_putch
  4529 ;; This function uses a non-reentrant model
  4530 ;;
  4531                           
  4532                           	psect	text38
  4533  0048AC                     __ptext38:
  4534                           	callstack 0
  4535  0048AC                     _UART1_Write:
  4536                           	callstack 116
  4537                           
  4538                           ;incstack = 0
  4539                           ;UART1_Write@txData stored from wreg
  4540  0048AC  6E01               	movwf	UART1_Write@txData^(0+1280),c
  4541  0048AE                     i2l614:
  4542                           
  4543                           ;mcc_generated_files/uart1.c: 172:     while(0 == PIR4bits.U1TXIF)
  4544  0048AE  A2B2               	btfss	178,1,c	;volatile
  4545  0048B0  EF5C  F024         	goto	i2u76_41
  4546  0048B4  EF5E  F024         	goto	i2u76_40
  4547  0048B8                     i2u76_41:
  4548  0048B8  EF57  F024         	goto	i2l614
  4549  0048BC                     i2u76_40:
  4550  0048BC                     
  4551                           ;mcc_generated_files/uart1.c: 176:     U1TXB = txData;
  4552  0048BC  0061  F404  F2A3   	movff	UART1_Write@txData,675	;volatile
  4553  0048C2  0012               	return		;funcret
  4554  0048C4                     __end_of_UART1_Write:
  4555                           	callstack 0
  4556                           
  4557 ;; *************** function _abs *****************
  4558 ;; Defined at:
  4559 ;;		line 1 in file "C:\Program Files\Microchip\xc8\v2.32\pic\sources\c99\common\abs.c"
  4560 ;; Parameters:    Size  Location     Type
  4561 ;;  a               2   18[COMRAM] int 
  4562 ;; Auto vars:     Size  Location     Type
  4563 ;;		None
  4564 ;; Return value:  Size  Location     Type
  4565 ;;                  2   18[COMRAM] int 
  4566 ;; Registers used:
  4567 ;;		wreg, status,2, status,0
  4568 ;; Tracked objects:
  4569 ;;		On entry : 0/0
  4570 ;;		On exit  : 0/0
  4571 ;;		Unchanged: 0/0
  4572 ;; Data sizes:     COMRAM   BANK5   BANK6   BANK7   BANK8   BANK9  BANK10  BANK11  BANK12  BANK13  BANK14  BANK15  BANK1
      +6  BANK17  BANK18  BANK19  BANK20  BANK21  BANK22  BANK23  BANK24  BANK25  BANK26  BANK27  BANK28  BANK29  BANK30  BANK3
      +1  BANK32  BANK33  BANK34  BANK35  BANK36  BANK37  BANK38  BANK39  BANK40  BANK41  BANK42  BANK43  BANK44  BANK45  BANK4
      +6  BANK47  BANK48  BANK49  BANK50  BANK51  BANK52  BANK53  BANK54  BANK55
  4573 ;;      Params:         2       0       0       0       0       0       0       0       0       0       0       0       
      +0       0       0       0       0       0       0       0       0       0       0       0       0       0       0       
      +0       0       0       0       0       0       0       0       0       0       0       0       0       0       0       
      +0       0       0       0       0       0       0       0       0       0
  4574 ;;      Locals:         0       0       0       0       0       0       0       0       0       0       0       0       
      +0       0       0       0       0       0       0       0       0       0       0       0       0       0       0       
      +0       0       0       0       0       0       0       0       0       0       0       0       0       0       0       
      +0       0       0       0       0       0       0       0       0       0
  4575 ;;      Temps:          2       0       0       0       0       0       0       0       0       0       0       0       
      +0       0       0       0       0       0       0       0       0       0       0       0       0       0       0       
      +0       0       0       0       0       0       0       0       0       0       0       0       0       0       0       
      +0       0       0       0       0       0       0       0       0       0
  4576 ;;      Totals:         4       0       0       0       0       0       0       0       0       0       0       0       
      +0       0       0       0       0       0       0       0       0       0       0       0       0       0       0       
      +0       0       0       0       0       0       0       0       0       0       0       0       0       0       0       
      +0       0       0       0       0       0       0       0       0       0
  4577 ;;Total ram usage:        4 bytes
  4578 ;; Hardware stack levels used: 1
  4579 ;; This function calls:
  4580 ;;		Nothing
  4581 ;; This function is called by:
  4582 ;;		_dtoa
  4583 ;; This function uses a non-reentrant model
  4584 ;;
  4585                           
  4586                           	psect	text39
  4587  00471A                     __ptext39:
  4588                           	callstack 0
  4589  00471A                     _abs:
  4590                           	callstack 117
  4591  00471A  BE14               	btfsc	(abs@a+1)^(0+1280),7,c
  4592  00471C  EF9A  F023         	goto	i2u100_40
  4593  004720  5014               	movf	(abs@a+1)^(0+1280),w,c
  4594  004722  E106               	bnz	i2u100_41
  4595  004724  0413               	decf	abs@a^(0+1280),w,c
  4596  004726  B0D8               	btfsc	status,0,c
  4597  004728  EF98  F023         	goto	i2u100_41
  4598  00472C  EF9A  F023         	goto	i2u100_40
  4599  004730                     i2u100_41:
  4600  004730  EFA8  F023         	goto	i2l1459
  4601  004734                     i2u100_40:
  4602  004734  C513  F515         	movff	abs@a,??_abs
  4603  004738  C514  F516         	movff	abs@a+1,??_abs+1
  4604  00473C  1E15               	comf	??_abs^(0+1280),f,c
  4605  00473E  1E16               	comf	(??_abs+1)^(0+1280),f,c
  4606  004740  4A15               	infsnz	??_abs^(0+1280),f,c
  4607  004742  2A16               	incf	(??_abs+1)^(0+1280),f,c
  4608  004744  C515  F513         	movff	??_abs,?_abs
  4609  004748  C516  F514         	movff	??_abs+1,?_abs+1
  4610  00474C  EFAC  F023         	goto	i2l1462
  4611  004750                     i2l1459:
  4612  004750  C513  F513         	movff	abs@a,?_abs
  4613  004754  C514  F514         	movff	abs@a+1,?_abs+1
  4614  004758                     i2l1462:
  4615  004758  0012               	return		;funcret
  4616  00475A                     __end_of_abs:
  4617                           	callstack 0
  4618                           
  4619 ;; *************** function ___aomod *****************
  4620 ;; Defined at:
  4621 ;;		line 9 in file "C:\Program Files\Microchip\xc8\v2.32\pic\sources\c99\common\aomod.c"
  4622 ;; Parameters:    Size  Location     Type
  4623 ;;  dividend        8    0[COMRAM] long long 
  4624 ;;  divisor         8    8[COMRAM] long long 
  4625 ;; Auto vars:     Size  Location     Type
  4626 ;;  sign            1   17[COMRAM] unsigned char 
  4627 ;;  counter         1   16[COMRAM] unsigned char 
  4628 ;; Return value:  Size  Location     Type
  4629 ;;                  8    0[COMRAM] long long 
  4630 ;; Registers used:
  4631 ;;		wreg, status,2, status,0
  4632 ;; Tracked objects:
  4633 ;;		On entry : 0/0
  4634 ;;		On exit  : 0/0
  4635 ;;		Unchanged: 0/0
  4636 ;; Data sizes:     COMRAM   BANK5   BANK6   BANK7   BANK8   BANK9  BANK10  BANK11  BANK12  BANK13  BANK14  BANK15  BANK1
      +6  BANK17  BANK18  BANK19  BANK20  BANK21  BANK22  BANK23  BANK24  BANK25  BANK26  BANK27  BANK28  BANK29  BANK30  BANK3
      +1  BANK32  BANK33  BANK34  BANK35  BANK36  BANK37  BANK38  BANK39  BANK40  BANK41  BANK42  BANK43  BANK44  BANK45  BANK4
      +6  BANK47  BANK48  BANK49  BANK50  BANK51  BANK52  BANK53  BANK54  BANK55
  4637 ;;      Params:        16       0       0       0       0       0       0       0       0       0       0       0       
      +0       0       0       0       0       0       0       0       0       0       0       0       0       0       0       
      +0       0       0       0       0       0       0       0       0       0       0       0       0       0       0       
      +0       0       0       0       0       0       0       0       0       0
  4638 ;;      Locals:         2       0       0       0       0       0       0       0       0       0       0       0       
      +0       0       0       0       0       0       0       0       0       0       0       0       0       0       0       
      +0       0       0       0       0       0       0       0       0       0       0       0       0       0       0       
      +0       0       0       0       0       0       0       0       0       0
  4639 ;;      Temps:          0       0       0       0       0       0       0       0       0       0       0       0       
      +0       0       0       0       0       0       0       0       0       0       0       0       0       0       0       
      +0       0       0       0       0       0       0       0       0       0       0       0       0       0       0       
      +0       0       0       0       0       0       0       0       0       0
  4640 ;;      Totals:        18       0       0       0       0       0       0       0       0       0       0       0       
      +0       0       0       0       0       0       0       0       0       0       0       0       0       0       0       
      +0       0       0       0       0       0       0       0       0       0       0       0       0       0       0       
      +0       0       0       0       0       0       0       0       0       0
  4641 ;;Total ram usage:       18 bytes
  4642 ;; Hardware stack levels used: 1
  4643 ;; This function calls:
  4644 ;;		Nothing
  4645 ;; This function is called by:
  4646 ;;		_dtoa
  4647 ;; This function uses a non-reentrant model
  4648 ;;
  4649                           
  4650                           	psect	text40
  4651  0040F2                     __ptext40:
  4652                           	callstack 0
  4653  0040F2                     ___aomod:
  4654                           	callstack 117
  4655  0040F2  0E00               	movlw	0
  4656  0040F4  6E12               	movwf	___aomod@sign^(0+1280),c
  4657  0040F6  BE08               	btfsc	(___aomod@dividend+7)^(0+1280),7,c
  4658  0040F8  EF82  F020         	goto	i2u90_40
  4659  0040FC  EF80  F020         	goto	i2u90_41
  4660  004100                     i2u90_41:
  4661  004100  EF94  F020         	goto	i2l2260
  4662  004104                     i2u90_40:
  4663  004104  1E08               	comf	(___aomod@dividend+7)^(0+1280),f,c
  4664  004106  1E07               	comf	(___aomod@dividend+6)^(0+1280),f,c
  4665  004108  1E06               	comf	(___aomod@dividend+5)^(0+1280),f,c
  4666  00410A  1E05               	comf	(___aomod@dividend+4)^(0+1280),f,c
  4667  00410C  1E04               	comf	(___aomod@dividend+3)^(0+1280),f,c
  4668  00410E  1E03               	comf	(___aomod@dividend+2)^(0+1280),f,c
  4669  004110  1E02               	comf	(___aomod@dividend+1)^(0+1280),f,c
  4670  004112  6C01               	negf	___aomod@dividend^(0+1280),c
  4671  004114  0E00               	movlw	0
  4672  004116  2202               	addwfc	(___aomod@dividend+1)^(0+1280),f,c
  4673  004118  2203               	addwfc	(___aomod@dividend+2)^(0+1280),f,c
  4674  00411A  2204               	addwfc	(___aomod@dividend+3)^(0+1280),f,c
  4675  00411C  2205               	addwfc	(___aomod@dividend+4)^(0+1280),f,c
  4676  00411E  2206               	addwfc	(___aomod@dividend+5)^(0+1280),f,c
  4677  004120  2207               	addwfc	(___aomod@dividend+6)^(0+1280),f,c
  4678  004122  2208               	addwfc	(___aomod@dividend+7)^(0+1280),f,c
  4679  004124  0E01               	movlw	1
  4680  004126  6E12               	movwf	___aomod@sign^(0+1280),c
  4681  004128                     i2l2260:
  4682  004128  BE10               	btfsc	(___aomod@divisor+7)^(0+1280),7,c
  4683  00412A  EF9B  F020         	goto	i2u91_40
  4684  00412E  EF99  F020         	goto	i2u91_41
  4685  004132                     i2u91_41:
  4686  004132  EFAB  F020         	goto	i2l2264
  4687  004136                     i2u91_40:
  4688  004136  1E10               	comf	(___aomod@divisor+7)^(0+1280),f,c
  4689  004138  1E0F               	comf	(___aomod@divisor+6)^(0+1280),f,c
  4690  00413A  1E0E               	comf	(___aomod@divisor+5)^(0+1280),f,c
  4691  00413C  1E0D               	comf	(___aomod@divisor+4)^(0+1280),f,c
  4692  00413E  1E0C               	comf	(___aomod@divisor+3)^(0+1280),f,c
  4693  004140  1E0B               	comf	(___aomod@divisor+2)^(0+1280),f,c
  4694  004142  1E0A               	comf	(___aomod@divisor+1)^(0+1280),f,c
  4695  004144  6C09               	negf	___aomod@divisor^(0+1280),c
  4696  004146  0E00               	movlw	0
  4697  004148  220A               	addwfc	(___aomod@divisor+1)^(0+1280),f,c
  4698  00414A  220B               	addwfc	(___aomod@divisor+2)^(0+1280),f,c
  4699  00414C  220C               	addwfc	(___aomod@divisor+3)^(0+1280),f,c
  4700  00414E  220D               	addwfc	(___aomod@divisor+4)^(0+1280),f,c
  4701  004150  220E               	addwfc	(___aomod@divisor+5)^(0+1280),f,c
  4702  004152  220F               	addwfc	(___aomod@divisor+6)^(0+1280),f,c
  4703  004154  2210               	addwfc	(___aomod@divisor+7)^(0+1280),f,c
  4704  004156                     i2l2264:
  4705  004156  5009               	movf	___aomod@divisor^(0+1280),w,c
  4706  004158  100A               	iorwf	(___aomod@divisor+1)^(0+1280),w,c
  4707  00415A  100B               	iorwf	(___aomod@divisor+2)^(0+1280),w,c
  4708  00415C  100C               	iorwf	(___aomod@divisor+3)^(0+1280),w,c
  4709  00415E  100D               	iorwf	(___aomod@divisor+4)^(0+1280),w,c
  4710  004160  100E               	iorwf	(___aomod@divisor+5)^(0+1280),w,c
  4711  004162  100F               	iorwf	(___aomod@divisor+6)^(0+1280),w,c
  4712  004164  1010               	iorwf	(___aomod@divisor+7)^(0+1280),w,c
  4713  004166  B4D8               	btfsc	status,2,c
  4714  004168  EFB8  F020         	goto	i2u92_41
  4715  00416C  EFBA  F020         	goto	i2u92_40
  4716  004170                     i2u92_41:
  4717  004170  EF02  F021         	goto	i2l2280
  4718  004174                     i2u92_40:
  4719  004174  0E01               	movlw	1
  4720  004176  6E11               	movwf	___aomod@counter^(0+1280),c
  4721  004178  EFC8  F020         	goto	i2l2270
  4722  00417C                     i2l2268:
  4723  00417C  90D8               	bcf	status,0,c
  4724  00417E  3609               	rlcf	___aomod@divisor^(0+1280),f,c
  4725  004180  360A               	rlcf	(___aomod@divisor+1)^(0+1280),f,c
  4726  004182  360B               	rlcf	(___aomod@divisor+2)^(0+1280),f,c
  4727  004184  360C               	rlcf	(___aomod@divisor+3)^(0+1280),f,c
  4728  004186  360D               	rlcf	(___aomod@divisor+4)^(0+1280),f,c
  4729  004188  360E               	rlcf	(___aomod@divisor+5)^(0+1280),f,c
  4730  00418A  360F               	rlcf	(___aomod@divisor+6)^(0+1280),f,c
  4731  00418C  3610               	rlcf	(___aomod@divisor+7)^(0+1280),f,c
  4732  00418E  2A11               	incf	___aomod@counter^(0+1280),f,c
  4733  004190                     i2l2270:
  4734  004190  AE10               	btfss	(___aomod@divisor+7)^(0+1280),7,c
  4735  004192  EFCD  F020         	goto	i2u93_41
  4736  004196  EFCF  F020         	goto	i2u93_40
  4737  00419A                     i2u93_41:
  4738  00419A  EFBE  F020         	goto	i2l2268
  4739  00419E                     i2u93_40:
  4740  00419E                     i2l2272:
  4741  00419E  5009               	movf	___aomod@divisor^(0+1280),w,c
  4742  0041A0  5C01               	subwf	___aomod@dividend^(0+1280),w,c
  4743  0041A2  500A               	movf	(___aomod@divisor+1)^(0+1280),w,c
  4744  0041A4  5802               	subwfb	(___aomod@dividend+1)^(0+1280),w,c
  4745  0041A6  500B               	movf	(___aomod@divisor+2)^(0+1280),w,c
  4746  0041A8  5803               	subwfb	(___aomod@dividend+2)^(0+1280),w,c
  4747  0041AA  500C               	movf	(___aomod@divisor+3)^(0+1280),w,c
  4748  0041AC  5804               	subwfb	(___aomod@dividend+3)^(0+1280),w,c
  4749  0041AE  500D               	movf	(___aomod@divisor+4)^(0+1280),w,c
  4750  0041B0  5805               	subwfb	(___aomod@dividend+4)^(0+1280),w,c
  4751  0041B2  500E               	movf	(___aomod@divisor+5)^(0+1280),w,c
  4752  0041B4  5806               	subwfb	(___aomod@dividend+5)^(0+1280),w,c
  4753  0041B6  500F               	movf	(___aomod@divisor+6)^(0+1280),w,c
  4754  0041B8  5807               	subwfb	(___aomod@dividend+6)^(0+1280),w,c
  4755  0041BA  5010               	movf	(___aomod@divisor+7)^(0+1280),w,c
  4756  0041BC  5808               	subwfb	(___aomod@dividend+7)^(0+1280),w,c
  4757  0041BE  A0D8               	btfss	status,0,c
  4758  0041C0  EFE4  F020         	goto	i2u94_41
  4759  0041C4  EFE6  F020         	goto	i2u94_40
  4760  0041C8                     i2u94_41:
  4761  0041C8  EFF6  F020         	goto	i2l2276
  4762  0041CC                     i2u94_40:
  4763  0041CC  5009               	movf	___aomod@divisor^(0+1280),w,c
  4764  0041CE  5E01               	subwf	___aomod@dividend^(0+1280),f,c
  4765  0041D0  500A               	movf	(___aomod@divisor+1)^(0+1280),w,c
  4766  0041D2  5A02               	subwfb	(___aomod@dividend+1)^(0+1280),f,c
  4767  0041D4  500B               	movf	(___aomod@divisor+2)^(0+1280),w,c
  4768  0041D6  5A03               	subwfb	(___aomod@dividend+2)^(0+1280),f,c
  4769  0041D8  500C               	movf	(___aomod@divisor+3)^(0+1280),w,c
  4770  0041DA  5A04               	subwfb	(___aomod@dividend+3)^(0+1280),f,c
  4771  0041DC  500D               	movf	(___aomod@divisor+4)^(0+1280),w,c
  4772  0041DE  5A05               	subwfb	(___aomod@dividend+4)^(0+1280),f,c
  4773  0041E0  500E               	movf	(___aomod@divisor+5)^(0+1280),w,c
  4774  0041E2  5A06               	subwfb	(___aomod@dividend+5)^(0+1280),f,c
  4775  0041E4  500F               	movf	(___aomod@divisor+6)^(0+1280),w,c
  4776  0041E6  5A07               	subwfb	(___aomod@dividend+6)^(0+1280),f,c
  4777  0041E8  5010               	movf	(___aomod@divisor+7)^(0+1280),w,c
  4778  0041EA  5A08               	subwfb	(___aomod@dividend+7)^(0+1280),f,c
  4779  0041EC                     i2l2276:
  4780  0041EC  90D8               	bcf	status,0,c
  4781  0041EE  3210               	rrcf	(___aomod@divisor+7)^(0+1280),f,c
  4782  0041F0  320F               	rrcf	(___aomod@divisor+6)^(0+1280),f,c
  4783  0041F2  320E               	rrcf	(___aomod@divisor+5)^(0+1280),f,c
  4784  0041F4  320D               	rrcf	(___aomod@divisor+4)^(0+1280),f,c
  4785  0041F6  320C               	rrcf	(___aomod@divisor+3)^(0+1280),f,c
  4786  0041F8  320B               	rrcf	(___aomod@divisor+2)^(0+1280),f,c
  4787  0041FA  320A               	rrcf	(___aomod@divisor+1)^(0+1280),f,c
  4788  0041FC  3209               	rrcf	___aomod@divisor^(0+1280),f,c
  4789  0041FE  2E11               	decfsz	___aomod@counter^(0+1280),f,c
  4790  004200  EFCF  F020         	goto	i2l2272
  4791  004204                     i2l2280:
  4792  004204  5012               	movf	___aomod@sign^(0+1280),w,c
  4793  004206  B4D8               	btfsc	status,2,c
  4794  004208  EF08  F021         	goto	i2u95_41
  4795  00420C  EF0A  F021         	goto	i2u95_40
  4796  004210                     i2u95_41:
  4797  004210  EF1A  F021         	goto	i2l2284
  4798  004214                     i2u95_40:
  4799  004214  1E08               	comf	(___aomod@dividend+7)^(0+1280),f,c
  4800  004216  1E07               	comf	(___aomod@dividend+6)^(0+1280),f,c
  4801  004218  1E06               	comf	(___aomod@dividend+5)^(0+1280),f,c
  4802  00421A  1E05               	comf	(___aomod@dividend+4)^(0+1280),f,c
  4803  00421C  1E04               	comf	(___aomod@dividend+3)^(0+1280),f,c
  4804  00421E  1E03               	comf	(___aomod@dividend+2)^(0+1280),f,c
  4805  004220  1E02               	comf	(___aomod@dividend+1)^(0+1280),f,c
  4806  004222  6C01               	negf	___aomod@dividend^(0+1280),c
  4807  004224  0E00               	movlw	0
  4808  004226  2202               	addwfc	(___aomod@dividend+1)^(0+1280),f,c
  4809  004228  2203               	addwfc	(___aomod@dividend+2)^(0+1280),f,c
  4810  00422A  2204               	addwfc	(___aomod@dividend+3)^(0+1280),f,c
  4811  00422C  2205               	addwfc	(___aomod@dividend+4)^(0+1280),f,c
  4812  00422E  2206               	addwfc	(___aomod@dividend+5)^(0+1280),f,c
  4813  004230  2207               	addwfc	(___aomod@dividend+6)^(0+1280),f,c
  4814  004232  2208               	addwfc	(___aomod@dividend+7)^(0+1280),f,c
  4815  004234                     i2l2284:
  4816  004234  C501  F501         	movff	___aomod@dividend,?___aomod
  4817  004238  C502  F502         	movff	___aomod@dividend+1,?___aomod+1
  4818  00423C  C503  F503         	movff	___aomod@dividend+2,?___aomod+2
  4819  004240  C504  F504         	movff	___aomod@dividend+3,?___aomod+3
  4820  004244  C505  F505         	movff	___aomod@dividend+4,?___aomod+4
  4821  004248  C506  F506         	movff	___aomod@dividend+5,?___aomod+5
  4822  00424C  C507  F507         	movff	___aomod@dividend+6,?___aomod+6
  4823  004250  C508  F508         	movff	___aomod@dividend+7,?___aomod+7
  4824  004254  0012               	return		;funcret
  4825  004256                     __end_of___aomod:
  4826                           	callstack 0
  4827                           
  4828 ;; *************** function ___aodiv *****************
  4829 ;; Defined at:
  4830 ;;		line 9 in file "C:\Program Files\Microchip\xc8\v2.32\pic\sources\c99\common\aodiv.c"
  4831 ;; Parameters:    Size  Location     Type
  4832 ;;  dividend        8    0[COMRAM] long long 
  4833 ;;  divisor         8    8[COMRAM] long long 
  4834 ;; Auto vars:     Size  Location     Type
  4835 ;;  quotient        8   18[COMRAM] long long 
  4836 ;;  sign            1   17[COMRAM] unsigned char 
  4837 ;;  counter         1   16[COMRAM] unsigned char 
  4838 ;; Return value:  Size  Location     Type
  4839 ;;                  8    0[COMRAM] long long 
  4840 ;; Registers used:
  4841 ;;		wreg, fsr2l, fsr2h, status,2, status,0
  4842 ;; Tracked objects:
  4843 ;;		On entry : 0/0
  4844 ;;		On exit  : 0/0
  4845 ;;		Unchanged: 0/0
  4846 ;; Data sizes:     COMRAM   BANK5   BANK6   BANK7   BANK8   BANK9  BANK10  BANK11  BANK12  BANK13  BANK14  BANK15  BANK1
      +6  BANK17  BANK18  BANK19  BANK20  BANK21  BANK22  BANK23  BANK24  BANK25  BANK26  BANK27  BANK28  BANK29  BANK30  BANK3
      +1  BANK32  BANK33  BANK34  BANK35  BANK36  BANK37  BANK38  BANK39  BANK40  BANK41  BANK42  BANK43  BANK44  BANK45  BANK4
      +6  BANK47  BANK48  BANK49  BANK50  BANK51  BANK52  BANK53  BANK54  BANK55
  4847 ;;      Params:        16       0       0       0       0       0       0       0       0       0       0       0       
      +0       0       0       0       0       0       0       0       0       0       0       0       0       0       0       
      +0       0       0       0       0       0       0       0       0       0       0       0       0       0       0       
      +0       0       0       0       0       0       0       0       0       0
  4848 ;;      Locals:        10       0       0       0       0       0       0       0       0       0       0       0       
      +0       0       0       0       0       0       0       0       0       0       0       0       0       0       0       
      +0       0       0       0       0       0       0       0       0       0       0       0       0       0       0       
      +0       0       0       0       0       0       0       0       0       0
  4849 ;;      Temps:          0       0       0       0       0       0       0       0       0       0       0       0       
      +0       0       0       0       0       0       0       0       0       0       0       0       0       0       0       
      +0       0       0       0       0       0       0       0       0       0       0       0       0       0       0       
      +0       0       0       0       0       0       0       0       0       0
  4850 ;;      Totals:        26       0       0       0       0       0       0       0       0       0       0       0       
      +0       0       0       0       0       0       0       0       0       0       0       0       0       0       0       
      +0       0       0       0       0       0       0       0       0       0       0       0       0       0       0       
      +0       0       0       0       0       0       0       0       0       0
  4851 ;;Total ram usage:       26 bytes
  4852 ;; Hardware stack levels used: 1
  4853 ;; This function calls:
  4854 ;;		Nothing
  4855 ;; This function is called by:
  4856 ;;		_dtoa
  4857 ;; This function uses a non-reentrant model
  4858 ;;
  4859                           
  4860                           	psect	text41
  4861  003F6A                     __ptext41:
  4862                           	callstack 0
  4863  003F6A                     ___aodiv:
  4864                           	callstack 117
  4865  003F6A  0E00               	movlw	0
  4866  003F6C  6E12               	movwf	___aodiv@sign^(0+1280),c
  4867  003F6E  BE10               	btfsc	(___aodiv@divisor+7)^(0+1280),7,c
  4868  003F70  EFBE  F01F         	goto	i2u83_40
  4869  003F74  EFBC  F01F         	goto	i2u83_41
  4870  003F78                     i2u83_41:
  4871  003F78  EFD0  F01F         	goto	i2l2216
  4872  003F7C                     i2u83_40:
  4873  003F7C  1E10               	comf	(___aodiv@divisor+7)^(0+1280),f,c
  4874  003F7E  1E0F               	comf	(___aodiv@divisor+6)^(0+1280),f,c
  4875  003F80  1E0E               	comf	(___aodiv@divisor+5)^(0+1280),f,c
  4876  003F82  1E0D               	comf	(___aodiv@divisor+4)^(0+1280),f,c
  4877  003F84  1E0C               	comf	(___aodiv@divisor+3)^(0+1280),f,c
  4878  003F86  1E0B               	comf	(___aodiv@divisor+2)^(0+1280),f,c
  4879  003F88  1E0A               	comf	(___aodiv@divisor+1)^(0+1280),f,c
  4880  003F8A  6C09               	negf	___aodiv@divisor^(0+1280),c
  4881  003F8C  0E00               	movlw	0
  4882  003F8E  220A               	addwfc	(___aodiv@divisor+1)^(0+1280),f,c
  4883  003F90  220B               	addwfc	(___aodiv@divisor+2)^(0+1280),f,c
  4884  003F92  220C               	addwfc	(___aodiv@divisor+3)^(0+1280),f,c
  4885  003F94  220D               	addwfc	(___aodiv@divisor+4)^(0+1280),f,c
  4886  003F96  220E               	addwfc	(___aodiv@divisor+5)^(0+1280),f,c
  4887  003F98  220F               	addwfc	(___aodiv@divisor+6)^(0+1280),f,c
  4888  003F9A  2210               	addwfc	(___aodiv@divisor+7)^(0+1280),f,c
  4889  003F9C  0E01               	movlw	1
  4890  003F9E  6E12               	movwf	___aodiv@sign^(0+1280),c
  4891  003FA0                     i2l2216:
  4892  003FA0  BE08               	btfsc	(___aodiv@dividend+7)^(0+1280),7,c
  4893  003FA2  EFD7  F01F         	goto	i2u84_40
  4894  003FA6  EFD5  F01F         	goto	i2u84_41
  4895  003FAA                     i2u84_41:
  4896  003FAA  EFE9  F01F         	goto	i2l2222
  4897  003FAE                     i2u84_40:
  4898  003FAE  1E08               	comf	(___aodiv@dividend+7)^(0+1280),f,c
  4899  003FB0  1E07               	comf	(___aodiv@dividend+6)^(0+1280),f,c
  4900  003FB2  1E06               	comf	(___aodiv@dividend+5)^(0+1280),f,c
  4901  003FB4  1E05               	comf	(___aodiv@dividend+4)^(0+1280),f,c
  4902  003FB6  1E04               	comf	(___aodiv@dividend+3)^(0+1280),f,c
  4903  003FB8  1E03               	comf	(___aodiv@dividend+2)^(0+1280),f,c
  4904  003FBA  1E02               	comf	(___aodiv@dividend+1)^(0+1280),f,c
  4905  003FBC  6C01               	negf	___aodiv@dividend^(0+1280),c
  4906  003FBE  0E00               	movlw	0
  4907  003FC0  2202               	addwfc	(___aodiv@dividend+1)^(0+1280),f,c
  4908  003FC2  2203               	addwfc	(___aodiv@dividend+2)^(0+1280),f,c
  4909  003FC4  2204               	addwfc	(___aodiv@dividend+3)^(0+1280),f,c
  4910  003FC6  2205               	addwfc	(___aodiv@dividend+4)^(0+1280),f,c
  4911  003FC8  2206               	addwfc	(___aodiv@dividend+5)^(0+1280),f,c
  4912  003FCA  2207               	addwfc	(___aodiv@dividend+6)^(0+1280),f,c
  4913  003FCC  2208               	addwfc	(___aodiv@dividend+7)^(0+1280),f,c
  4914  003FCE  0E01               	movlw	1
  4915  003FD0  1A12               	xorwf	___aodiv@sign^(0+1280),f,c
  4916  003FD2                     i2l2222:
  4917  003FD2  EE21  F113         	lfsr	2,___aodiv@quotient
  4918  003FD6  0E07               	movlw	7
  4919  003FD8                     i2u85_41:
  4920  003FD8  6ADE               	clrf	postinc2,c
  4921  003FDA  06E8               	decf	wreg,f,c
  4922  003FDC  E2FD               	bc	i2u85_41
  4923  003FDE  5009               	movf	___aodiv@divisor^(0+1280),w,c
  4924  003FE0  100A               	iorwf	(___aodiv@divisor+1)^(0+1280),w,c
  4925  003FE2  100B               	iorwf	(___aodiv@divisor+2)^(0+1280),w,c
  4926  003FE4  100C               	iorwf	(___aodiv@divisor+3)^(0+1280),w,c
  4927  003FE6  100D               	iorwf	(___aodiv@divisor+4)^(0+1280),w,c
  4928  003FE8  100E               	iorwf	(___aodiv@divisor+5)^(0+1280),w,c
  4929  003FEA  100F               	iorwf	(___aodiv@divisor+6)^(0+1280),w,c
  4930  003FEC  1010               	iorwf	(___aodiv@divisor+7)^(0+1280),w,c
  4931  003FEE  B4D8               	btfsc	status,2,c
  4932  003FF0  EFFC  F01F         	goto	i2u86_41
  4933  003FF4  EFFE  F01F         	goto	i2u86_40
  4934  003FF8                     i2u86_41:
  4935  003FF8  EF50  F020         	goto	i2l2244
  4936  003FFC                     i2u86_40:
  4937  003FFC  0E01               	movlw	1
  4938  003FFE  6E11               	movwf	___aodiv@counter^(0+1280),c
  4939  004000  EF0C  F020         	goto	i2l2230
  4940  004004                     i2l2228:
  4941  004004  90D8               	bcf	status,0,c
  4942  004006  3609               	rlcf	___aodiv@divisor^(0+1280),f,c
  4943  004008  360A               	rlcf	(___aodiv@divisor+1)^(0+1280),f,c
  4944  00400A  360B               	rlcf	(___aodiv@divisor+2)^(0+1280),f,c
  4945  00400C  360C               	rlcf	(___aodiv@divisor+3)^(0+1280),f,c
  4946  00400E  360D               	rlcf	(___aodiv@divisor+4)^(0+1280),f,c
  4947  004010  360E               	rlcf	(___aodiv@divisor+5)^(0+1280),f,c
  4948  004012  360F               	rlcf	(___aodiv@divisor+6)^(0+1280),f,c
  4949  004014  3610               	rlcf	(___aodiv@divisor+7)^(0+1280),f,c
  4950  004016  2A11               	incf	___aodiv@counter^(0+1280),f,c
  4951  004018                     i2l2230:
  4952  004018  AE10               	btfss	(___aodiv@divisor+7)^(0+1280),7,c
  4953  00401A  EF11  F020         	goto	i2u87_41
  4954  00401E  EF13  F020         	goto	i2u87_40
  4955  004022                     i2u87_41:
  4956  004022  EF02  F020         	goto	i2l2228
  4957  004026                     i2u87_40:
  4958  004026                     i2l2232:
  4959  004026  90D8               	bcf	status,0,c
  4960  004028  3613               	rlcf	___aodiv@quotient^(0+1280),f,c
  4961  00402A  3614               	rlcf	(___aodiv@quotient+1)^(0+1280),f,c
  4962  00402C  3615               	rlcf	(___aodiv@quotient+2)^(0+1280),f,c
  4963  00402E  3616               	rlcf	(___aodiv@quotient+3)^(0+1280),f,c
  4964  004030  3617               	rlcf	(___aodiv@quotient+4)^(0+1280),f,c
  4965  004032  3618               	rlcf	(___aodiv@quotient+5)^(0+1280),f,c
  4966  004034  3619               	rlcf	(___aodiv@quotient+6)^(0+1280),f,c
  4967  004036  361A               	rlcf	(___aodiv@quotient+7)^(0+1280),f,c
  4968  004038  5009               	movf	___aodiv@divisor^(0+1280),w,c
  4969  00403A  5C01               	subwf	___aodiv@dividend^(0+1280),w,c
  4970  00403C  500A               	movf	(___aodiv@divisor+1)^(0+1280),w,c
  4971  00403E  5802               	subwfb	(___aodiv@dividend+1)^(0+1280),w,c
  4972  004040  500B               	movf	(___aodiv@divisor+2)^(0+1280),w,c
  4973  004042  5803               	subwfb	(___aodiv@dividend+2)^(0+1280),w,c
  4974  004044  500C               	movf	(___aodiv@divisor+3)^(0+1280),w,c
  4975  004046  5804               	subwfb	(___aodiv@dividend+3)^(0+1280),w,c
  4976  004048  500D               	movf	(___aodiv@divisor+4)^(0+1280),w,c
  4977  00404A  5805               	subwfb	(___aodiv@dividend+4)^(0+1280),w,c
  4978  00404C  500E               	movf	(___aodiv@divisor+5)^(0+1280),w,c
  4979  00404E  5806               	subwfb	(___aodiv@dividend+5)^(0+1280),w,c
  4980  004050  500F               	movf	(___aodiv@divisor+6)^(0+1280),w,c
  4981  004052  5807               	subwfb	(___aodiv@dividend+6)^(0+1280),w,c
  4982  004054  5010               	movf	(___aodiv@divisor+7)^(0+1280),w,c
  4983  004056  5808               	subwfb	(___aodiv@dividend+7)^(0+1280),w,c
  4984  004058  A0D8               	btfss	status,0,c
  4985  00405A  EF31  F020         	goto	i2u88_41
  4986  00405E  EF33  F020         	goto	i2u88_40
  4987  004062                     i2u88_41:
  4988  004062  EF44  F020         	goto	i2l2240
  4989  004066                     i2u88_40:
  4990  004066  5009               	movf	___aodiv@divisor^(0+1280),w,c
  4991  004068  5E01               	subwf	___aodiv@dividend^(0+1280),f,c
  4992  00406A  500A               	movf	(___aodiv@divisor+1)^(0+1280),w,c
  4993  00406C  5A02               	subwfb	(___aodiv@dividend+1)^(0+1280),f,c
  4994  00406E  500B               	movf	(___aodiv@divisor+2)^(0+1280),w,c
  4995  004070  5A03               	subwfb	(___aodiv@dividend+2)^(0+1280),f,c
  4996  004072  500C               	movf	(___aodiv@divisor+3)^(0+1280),w,c
  4997  004074  5A04               	subwfb	(___aodiv@dividend+3)^(0+1280),f,c
  4998  004076  500D               	movf	(___aodiv@divisor+4)^(0+1280),w,c
  4999  004078  5A05               	subwfb	(___aodiv@dividend+4)^(0+1280),f,c
  5000  00407A  500E               	movf	(___aodiv@divisor+5)^(0+1280),w,c
  5001  00407C  5A06               	subwfb	(___aodiv@dividend+5)^(0+1280),f,c
  5002  00407E  500F               	movf	(___aodiv@divisor+6)^(0+1280),w,c
  5003  004080  5A07               	subwfb	(___aodiv@dividend+6)^(0+1280),f,c
  5004  004082  5010               	movf	(___aodiv@divisor+7)^(0+1280),w,c
  5005  004084  5A08               	subwfb	(___aodiv@dividend+7)^(0+1280),f,c
  5006  004086  8013               	bsf	___aodiv@quotient^(0+1280),0,c
  5007  004088                     i2l2240:
  5008  004088  90D8               	bcf	status,0,c
  5009  00408A  3210               	rrcf	(___aodiv@divisor+7)^(0+1280),f,c
  5010  00408C  320F               	rrcf	(___aodiv@divisor+6)^(0+1280),f,c
  5011  00408E  320E               	rrcf	(___aodiv@divisor+5)^(0+1280),f,c
  5012  004090  320D               	rrcf	(___aodiv@divisor+4)^(0+1280),f,c
  5013  004092  320C               	rrcf	(___aodiv@divisor+3)^(0+1280),f,c
  5014  004094  320B               	rrcf	(___aodiv@divisor+2)^(0+1280),f,c
  5015  004096  320A               	rrcf	(___aodiv@divisor+1)^(0+1280),f,c
  5016  004098  3209               	rrcf	___aodiv@divisor^(0+1280),f,c
  5017  00409A  2E11               	decfsz	___aodiv@counter^(0+1280),f,c
  5018  00409C  EF13  F020         	goto	i2l2232
  5019  0040A0                     i2l2244:
  5020  0040A0  5012               	movf	___aodiv@sign^(0+1280),w,c
  5021  0040A2  B4D8               	btfsc	status,2,c
  5022  0040A4  EF56  F020         	goto	i2u89_41
  5023  0040A8  EF58  F020         	goto	i2u89_40
  5024  0040AC                     i2u89_41:
  5025  0040AC  EF68  F020         	goto	i2l2248
  5026  0040B0                     i2u89_40:
  5027  0040B0  1E1A               	comf	(___aodiv@quotient+7)^(0+1280),f,c
  5028  0040B2  1E19               	comf	(___aodiv@quotient+6)^(0+1280),f,c
  5029  0040B4  1E18               	comf	(___aodiv@quotient+5)^(0+1280),f,c
  5030  0040B6  1E17               	comf	(___aodiv@quotient+4)^(0+1280),f,c
  5031  0040B8  1E16               	comf	(___aodiv@quotient+3)^(0+1280),f,c
  5032  0040BA  1E15               	comf	(___aodiv@quotient+2)^(0+1280),f,c
  5033  0040BC  1E14               	comf	(___aodiv@quotient+1)^(0+1280),f,c
  5034  0040BE  6C13               	negf	___aodiv@quotient^(0+1280),c
  5035  0040C0  0E00               	movlw	0
  5036  0040C2  2214               	addwfc	(___aodiv@quotient+1)^(0+1280),f,c
  5037  0040C4  2215               	addwfc	(___aodiv@quotient+2)^(0+1280),f,c
  5038  0040C6  2216               	addwfc	(___aodiv@quotient+3)^(0+1280),f,c
  5039  0040C8  2217               	addwfc	(___aodiv@quotient+4)^(0+1280),f,c
  5040  0040CA  2218               	addwfc	(___aodiv@quotient+5)^(0+1280),f,c
  5041  0040CC  2219               	addwfc	(___aodiv@quotient+6)^(0+1280),f,c
  5042  0040CE  221A               	addwfc	(___aodiv@quotient+7)^(0+1280),f,c
  5043  0040D0                     i2l2248:
  5044  0040D0  C513  F501         	movff	___aodiv@quotient,?___aodiv
  5045  0040D4  C514  F502         	movff	___aodiv@quotient+1,?___aodiv+1
  5046  0040D8  C515  F503         	movff	___aodiv@quotient+2,?___aodiv+2
  5047  0040DC  C516  F504         	movff	___aodiv@quotient+3,?___aodiv+3
  5048  0040E0  C517  F505         	movff	___aodiv@quotient+4,?___aodiv+4
  5049  0040E4  C518  F506         	movff	___aodiv@quotient+5,?___aodiv+5
  5050  0040E8  C519  F507         	movff	___aodiv@quotient+6,?___aodiv+6
  5051  0040EC  C51A  F508         	movff	___aodiv@quotient+7,?___aodiv+7
  5052  0040F0  0012               	return		;funcret
  5053  0040F2                     __end_of___aodiv:
  5054                           	callstack 0
  5055                           
  5056 ;; *************** function _ADC_GetConversionResult *****************
  5057 ;; Defined at:
  5058 ;;		line 521 in file "mcc_generated_files/adc.c"
  5059 ;; Parameters:    Size  Location     Type
  5060 ;;		None
  5061 ;; Auto vars:     Size  Location     Type
  5062 ;;		None
  5063 ;; Return value:  Size  Location     Type
  5064 ;;                  2    0[COMRAM] unsigned short 
  5065 ;; Registers used:
  5066 ;;		wreg, status,2, status,0
  5067 ;; Tracked objects:
  5068 ;;		On entry : 0/0
  5069 ;;		On exit  : 0/0
  5070 ;;		Unchanged: 0/0
  5071 ;; Data sizes:     COMRAM   BANK5   BANK6   BANK7   BANK8   BANK9  BANK10  BANK11  BANK12  BANK13  BANK14  BANK15  BANK1
      +6  BANK17  BANK18  BANK19  BANK20  BANK21  BANK22  BANK23  BANK24  BANK25  BANK26  BANK27  BANK28  BANK29  BANK30  BANK3
      +1  BANK32  BANK33  BANK34  BANK35  BANK36  BANK37  BANK38  BANK39  BANK40  BANK41  BANK42  BANK43  BANK44  BANK45  BANK4
      +6  BANK47  BANK48  BANK49  BANK50  BANK51  BANK52  BANK53  BANK54  BANK55
  5072 ;;      Params:         2       0       0       0       0       0       0       0       0       0       0       0       
      +0       0       0       0       0       0       0       0       0       0       0       0       0       0       0       
      +0       0       0       0       0       0       0       0       0       0       0       0       0       0       0       
      +0       0       0       0       0       0       0       0       0       0
  5073 ;;      Locals:         0       0       0       0       0       0       0       0       0       0       0       0       
      +0       0       0       0       0       0       0       0       0       0       0       0       0       0       0       
      +0       0       0       0       0       0       0       0       0       0       0       0       0       0       0       
      +0       0       0       0       0       0       0       0       0       0
  5074 ;;      Temps:          2       0       0       0       0       0       0       0       0       0       0       0       
      +0       0       0       0       0       0       0       0       0       0       0       0       0       0       0       
      +0       0       0       0       0       0       0       0       0       0       0       0       0       0       0       
      +0       0       0       0       0       0       0       0       0       0
  5075 ;;      Totals:         4       0       0       0       0       0       0       0       0       0       0       0       
      +0       0       0       0       0       0       0       0       0       0       0       0       0       0       0       
      +0       0       0       0       0       0       0       0       0       0       0       0       0       0       0       
      +0       0       0       0       0       0       0       0       0       0
  5076 ;;Total ram usage:        4 bytes
  5077 ;; Hardware stack levels used: 1
  5078 ;; This function calls:
  5079 ;;		Nothing
  5080 ;; This function is called by:
  5081 ;;		_ADC_UserContext4Threshold_ISR
  5082 ;; This function uses a non-reentrant model
  5083 ;;
  5084                           
  5085                           	psect	text42
  5086  0048DA                     __ptext42:
  5087                           	callstack 0
  5088  0048DA                     _ADC_GetConversionResult:
  5089                           	callstack 121
  5090  0048DA                     
  5091                           ;mcc_generated_files/adc.c: 524:     return ((adc_result_t) ((ADRESH << 8) + ADRESL));
  5092  0048DA  0103               	movlb	3	; () banked
  5093  0048DC  51EB               	movf	235,w,b	;volatile
  5094  0048DE  6E04               	movwf	(??_ADC_GetConversionResult+1)^(0+1280),c
  5095  0048E0  6A03               	clrf	??_ADC_GetConversionResult^(0+1280),c
  5096  0048E2  51EA               	movf	234,w,b	;volatile
  5097  0048E4  2403               	addwf	??_ADC_GetConversionResult^(0+1280),w,c
  5098  0048E6  6E01               	movwf	?_ADC_GetConversionResult^(0+1280),c
  5099  0048E8  0E00               	movlw	0
  5100  0048EA  2004               	addwfc	(??_ADC_GetConversionResult+1)^(0+1280),w,c
  5101  0048EC  6E02               	movwf	(?_ADC_GetConversionResult+1)^(0+1280),c
  5102  0048EE                     
  5103                           ; BSR set to: 3
  5104  0048EE  0012               	return		;funcret
  5105  0048F0                     __end_of_ADC_GetConversionResult:
  5106                           	callstack 0
  5107                           
  5108                           ;
  5109                           ; Interrupt Vector Table @ 0x8
  5110                           ;
  5111                           
  5112                           	psect	ivt0x8
  5113  000008                     __pivt0x8:
  5114                           	callstack 0
  5115  000008                     ivt0x8_base:
  5116                           	callstack 0
  5117                           
  5118                           ; high-priority vector
  5119  000008  EF42  F023         	goto	_INTERRUPT_InterruptManager
  5120  000018                     	org	16
  5121                           
  5122                           ; low-priority vector
  5123  000018  00FF               	reset	
  5124                           
  5125                           	psect	text43
  5126  000000                     __ptext43:
  5127                           	callstack 0
  5128  000000                     
  5129                           	psect	rparam
  5130  0000                     
  5131                           	psect	idloc
  5132                           
  5133                           ;Config register IDLOC0 @ 0x200000
  5134                           ;	unspecified, using default values
  5135  200000                     	org	2097152
  5136  200000  0FFF               	dw	4095
  5137                           
  5138                           ;Config register IDLOC1 @ 0x200002
  5139                           ;	unspecified, using default values
  5140  200002                     	org	2097154
  5141  200002  0FFF               	dw	4095
  5142                           
  5143                           ;Config register IDLOC2 @ 0x200004
  5144                           ;	unspecified, using default values
  5145  200004                     	org	2097156
  5146  200004  0FFF               	dw	4095
  5147                           
  5148                           ;Config register IDLOC3 @ 0x200006
  5149                           ;	unspecified, using default values
  5150  200006                     	org	2097158
  5151  200006  0FFF               	dw	4095
  5152                           
  5153                           ;Config register IDLOC4 @ 0x200008
  5154                           ;	unspecified, using default values
  5155  200008                     	org	2097160
  5156  200008  0FFF               	dw	4095
  5157                           
  5158                           ;Config register IDLOC5 @ 0x20000A
  5159                           ;	unspecified, using default values
  5160  20000A                     	org	2097162
  5161  20000A  0FFF               	dw	4095
  5162                           
  5163                           ;Config register IDLOC6 @ 0x20000C
  5164                           ;	unspecified, using default values
  5165  20000C                     	org	2097164
  5166  20000C  0FFF               	dw	4095
  5167                           
  5168                           ;Config register IDLOC7 @ 0x20000E
  5169                           ;	unspecified, using default values
  5170  20000E                     	org	2097166
  5171  20000E  0FFF               	dw	4095
  5172                           
  5173                           ;Config register IDLOC8 @ 0x200010
  5174                           ;	unspecified, using default values
  5175  200010                     	org	2097168
  5176  200010  0FFF               	dw	4095
  5177                           
  5178                           ;Config register IDLOC9 @ 0x200012
  5179                           ;	unspecified, using default values
  5180  200012                     	org	2097170
  5181  200012  0FFF               	dw	4095
  5182                           
  5183                           ;Config register IDLOC10 @ 0x200014
  5184                           ;	unspecified, using default values
  5185  200014                     	org	2097172
  5186  200014  0FFF               	dw	4095
  5187                           
  5188                           ;Config register IDLOC11 @ 0x200016
  5189                           ;	unspecified, using default values
  5190  200016                     	org	2097174
  5191  200016  0FFF               	dw	4095
  5192                           
  5193                           ;Config register IDLOC12 @ 0x200018
  5194                           ;	unspecified, using default values
  5195  200018                     	org	2097176
  5196  200018  0FFF               	dw	4095
  5197                           
  5198                           ;Config register IDLOC13 @ 0x20001A
  5199                           ;	unspecified, using default values
  5200  20001A                     	org	2097178
  5201  20001A  0FFF               	dw	4095
  5202                           
  5203                           ;Config register IDLOC14 @ 0x20001C
  5204                           ;	unspecified, using default values
  5205  20001C                     	org	2097180
  5206  20001C  0FFF               	dw	4095
  5207                           
  5208                           ;Config register IDLOC15 @ 0x20001E
  5209                           ;	unspecified, using default values
  5210  20001E                     	org	2097182
  5211  20001E  0FFF               	dw	4095
  5212                           
  5213                           	psect	config
  5214                           
  5215                           ;Config register CONFIG1 @ 0x300000
  5216                           ;	External Oscillator Selection
  5217                           ;	FEXTOSC = HS, HS (crystal oscillator) above 8 MHz
  5218                           ;	Reset Oscillator Selection
  5219                           ;	RSTOSC = EXTOSC_4PLL, EXTOSC with 4x PLL, with EXTOSC operating per FEXTOSC bits
  5220  300000                     	org	3145728
  5221  300000  AA                 	db	170
  5222                           
  5223                           ;Config register CONFIG2 @ 0x300001
  5224                           ;	Clock out Enable bit
  5225                           ;	CLKOUTEN = OFF, CLKOUT function is disabled
  5226                           ;	PRLOCKED One-Way Set Enable bit
  5227                           ;	PR1WAY = ON, PRLOCKED bit can be cleared and set only once
  5228                           ;	Clock Switch Enable bit
  5229                           ;	CSWEN = ON, Writing to NOSC and NDIV is allowed
  5230                           ;	JTAG Enable bit
  5231                           ;	JTAGEN = OFF, Disable JTAG Boundary Scan mode, JTAG pins revert to user functions
  5232                           ;	Fail-Safe Clock Monitor Enable bit
  5233                           ;	FCMEN = ON, Fail-Safe Clock Monitor enabled
  5234                           ;	Fail-Safe Clock Monitor -Primary XTAL Enable bit
  5235                           ;	FCMENP = ON, FSCM timer will set FSCMP bit and OSFIF interrupt on Primary XTAL failure
  5236                           ;	Fail-Safe Clock Monitor -Secondary XTAL Enable bit
  5237                           ;	FCMENS = ON, FSCM timer will set FSCMS bit and OSFIF interrupt on Secondary XTAL failu
      +                          re
  5238  300001                     	org	3145729
  5239  300001  EF                 	db	239
  5240                           
  5241                           ;Config register CONFIG3 @ 0x300002
  5242                           ;	MCLR Enable bit
  5243                           ;	MCLRE = EXTMCLR, If LVP = 0, MCLR pin is MCLR; If LVP = 1, RE3 pin function is MCLR
  5244                           ;	Power-up timer selection bits
  5245                           ;	PWRTS = PWRT_OFF, PWRT is disabled
  5246                           ;	Multi-vector enable bit
  5247                           ;	MVECEN = OFF, Interrupt contoller does not use vector table to prioritze interrupts
  5248                           ;	IVTLOCK bit One-way set enable bit
  5249                           ;	IVT1WAY = ON, IVTLOCKED bit can be cleared and set only once
  5250                           ;	Low Power BOR Enable bit
  5251                           ;	LPBOREN = OFF, Low-Power BOR disabled
  5252                           ;	Brown-out Reset Enable bits
  5253                           ;	BOREN = SBORDIS, Brown-out Reset enabled , SBOREN bit is ignored
  5254  300002                     	org	3145730
  5255  300002  F7                 	db	247
  5256                           
  5257                           ;Config register CONFIG4 @ 0x300003
  5258                           ;	Brown-out Reset Voltage Selection bits
  5259                           ;	BORV = VBOR_1P9, Brown-out Reset Voltage (VBOR) set to 1.9V
  5260                           ;	ZCD Disable bit
  5261                           ;	ZCD = OFF, ZCD module is disabled. ZCD can be enabled by setting the ZCDSEN bit of ZCD
      +                          CON
  5262                           ;	PPSLOCK bit One-Way Set Enable bit
  5263                           ;	PPS1WAY = ON, PPSLOCKED bit can be cleared and set only once; PPS registers remain loc
      +                          ked after one clear/set cycle
  5264                           ;	Stack Full/Underflow Reset Enable bit
  5265                           ;	STVREN = ON, Stack full/underflow will cause Reset
  5266                           ;	Low Voltage Programming Enable bit
  5267                           ;	LVP = ON, Low voltage programming enabled. MCLR/VPP pin function is MCLR. MCLRE config
      +                          uration bit is ignored
  5268                           ;	Extended Instruction Set Enable bit
  5269                           ;	XINST = OFF, Extended Instruction Set and Indexed Addressing Mode disabled
  5270  300003                     	org	3145731
  5271  300003  FF                 	db	255
  5272                           
  5273                           ;Config register CONFIG5 @ 0x300004
  5274                           ;	WDT Period selection bits
  5275                           ;	WDTCPS = WDTCPS_31, Divider ratio 1:65536; software control of WDTPS
  5276                           ;	WDT operating mode
  5277                           ;	WDTE = OFF, WDT Disabled; SWDTEN is ignored
  5278  300004                     	org	3145732
  5279  300004  9F                 	db	159
  5280                           
  5281                           ;Config register CONFIG6 @ 0x300005
  5282                           ;	WDT Window Select bits
  5283                           ;	WDTCWS = WDTCWS_7, window always open (100%); software control; keyed access not requi
      +                          red
  5284                           ;	WDT input clock selector
  5285                           ;	WDTCCS = SC, Software Control
  5286  300005                     	org	3145733
  5287  300005  FF                 	db	255
  5288                           
  5289                           ;Config register CONFIG7 @ 0x300006
  5290                           ;	Boot Block Size selection bits
  5291                           ;	BBSIZE = BBSIZE_512, Boot Block size is 512 words
  5292                           ;	Boot Block enable bit
  5293                           ;	BBEN = OFF, Boot block disabled
  5294                           ;	Storage Area Flash enable bit
  5295                           ;	SAFEN = OFF, SAF disabled
  5296  300006                     	org	3145734
  5297  300006  FF                 	db	255
  5298                           
  5299                           ;Config register CONFIG8 @ 0x300007
  5300                           ;	Boot Block Write Protection bit
  5301                           ;	WRTB = OFF, Boot Block not Write protected
  5302                           ;	Configuration Register Write Protection bit
  5303                           ;	WRTC = OFF, Configuration registers not Write protected
  5304                           ;	Data EEPROM Write Protection bit
  5305                           ;	WRTD = OFF, Data EEPROM not Write protected
  5306                           ;	SAF Write protection bit
  5307                           ;	WRTSAF = OFF, SAF not Write Protected
  5308                           ;	Application Block write protection bit
  5309                           ;	WRTAPP = OFF, Application Block not write protected
  5310  300007                     	org	3145735
  5311  300007  FF                 	db	255
  5312                           
  5313                           ;Config register CONFIG9 @ 0x300008
  5314                           ;	CRC on boot output pin selection
  5315                           ;	BOOTPINSEL = RC5, CRC on boot output pin is RC5
  5316                           ;	CRC on boot output pin enable bit
  5317                           ;	BPEN = OFF, CRC on boot output pin disabled
  5318                           ;	CRC on boot output pin open drain bit
  5319                           ;	ODCON = OFF, Pin drives both high-going and low-going signals
  5320  300008                     	org	3145736
  5321  300008  FF                 	db	255
  5322                           
  5323                           ;Config register CONFIG10 @ 0x300009
  5324                           ;	PFM and Data EEPROM Code Protection bit
  5325                           ;	CP = OFF, PFM and Data EEPROM code protection disabled
  5326  300009                     	org	3145737
  5327  300009  FF                 	db	255
  5328                           
  5329                           ;Config register CONFIG11 @ 0x30000A
  5330                           ;	CRC on boot scan enable for boot area
  5331                           ;	BOOTSCEN = OFF, CRC on boot will not include the boot area of program memory in its ca
      +                          lculation
  5332                           ;	CRC on boot Continue on Error for boot areas bit
  5333                           ;	BOOTCOE = HALT, CRC on boot will stop device if error is detected in boot areas
  5334                           ;	CRC on boot application code scan enable
  5335                           ;	APPSCEN = OFF, CRC on boot will not include the application area of program memory in 
      +                          its calculation
  5336                           ;	CRC on boot SAF area scan enable
  5337                           ;	SAFSCEN = OFF, CRC on boot will not include the SAF area of program memory in its calc
      +                          ulation
  5338                           ;	CRC on boot Data EEPROM scan enable
  5339                           ;	DATASCEN = OFF, CRC on boot will not include data EEPROM in its calculation
  5340                           ;	CRC on boot Config fuses scan enable
  5341                           ;	CFGSCEN = OFF, CRC on boot will not include the configuration fuses in its calculation
  5342                           ;	CRC on boot Continue on Error for non-boot areas bit
  5343                           ;	COE = HALT, CRC on boot will stop device if error is detected in non-boot areas
  5344                           ;	Boot on CRC Enable bit
  5345                           ;	BOOTPOR = OFF, CRC on boot will not run
  5346  30000A                     	org	3145738
  5347  30000A  FF                 	db	255
  5348                           
  5349                           ;Config register CONFIG12 @ 0x30000B
  5350                           ;	Boot Sector Polynomial for CRC on boot bits 31-24
  5351                           ;	BCRCPOLT = hFF, Bits 31:24 of BCRCPOL are 0xFF
  5352  30000B                     	org	3145739
  5353  30000B  FF                 	db	255
  5354                           
  5355                           ;Config register CONFIG13 @ 0x30000C
  5356                           ;	Boot Sector Polynomial for CRC on boot bits 23-16
  5357                           ;	BCRCPOLU = hFF, Bits 23:16 of BCRCPOL are 0xFF
  5358  30000C                     	org	3145740
  5359  30000C  FF                 	db	255
  5360                           
  5361                           ;Config register CONFIG14 @ 0x30000D
  5362                           ;	Boot Sector Polynomial for CRC on boot bits 15-8
  5363                           ;	BCRCPOLH = hFF, Bits 15:8 of BCRCPOL are 0xFF
  5364  30000D                     	org	3145741
  5365  30000D  FF                 	db	255
  5366                           
  5367                           ;Config register CONFIG15 @ 0x30000E
  5368                           ;	Boot Sector Polynomial for CRC on boot bits 7-0
  5369                           ;	BCRCPOLL = hFF, Bits 7:0 of BCRCPOL are 0xFF
  5370  30000E                     	org	3145742
  5371  30000E  FF                 	db	255
  5372                           
  5373                           ;Config register CONFIG16 @ 0x30000F
  5374                           ;	Boot Sector Seed for CRC on boot bits 31-24
  5375                           ;	BCRCSEEDT = hFF, Bits 31:24 of BCRCSEED are 0xFF
  5376  30000F                     	org	3145743
  5377  30000F  FF                 	db	255
  5378                           
  5379                           ;Config register CONFIG17 @ 0x300010
  5380                           ;	Boot Sector Seed for CRC on boot bits 23-16
  5381                           ;	BCRCSEEDU = hFF, Bits 23:16 of BCRCSEED are 0xFF
  5382  300010                     	org	3145744
  5383  300010  FF                 	db	255
  5384                           
  5385                           ;Config register CONFIG18 @ 0x300011
  5386                           ;	Boot Sector Seed for CRC on boot bits 15-8
  5387                           ;	BCRCSEEDH = hFF, Bits 15:8 of BCRCSEED are 0xFF
  5388  300011                     	org	3145745
  5389  300011  FF                 	db	255
  5390                           
  5391                           ;Config register CONFIG19 @ 0x300012
  5392                           ;	Boot Sector Seed for CRC on boot bits 7-0
  5393                           ;	BCRCSEEDL = hFF, Bits 7:0 of BCRCSEED are 0xFF
  5394  300012                     	org	3145746
  5395  300012  FF                 	db	255
  5396                           
  5397                           ;Config register CONFIG20 @ 0x300013
  5398                           ;	unspecified, using default values
  5399                           ;	Boot Sector Expected Result for CRC on boot bits 31-24
  5400                           ;	BCRCEREST = 0xFF, unprogrammed default
  5401  300013                     	org	3145747
  5402  300013  FF                 	db	255
  5403                           
  5404                           ;Config register CONFIG21 @ 0x300014
  5405                           ;	unspecified, using default values
  5406                           ;	Boot Sector Expected Result for CRC on boot bits 23-16
  5407                           ;	BCRCERESU = 0xFF, unprogrammed default
  5408  300014                     	org	3145748
  5409  300014  FF                 	db	255
  5410                           
  5411                           ;Config register CONFIG22 @ 0x300015
  5412                           ;	unspecified, using default values
  5413                           ;	Boot Sector Expected Result for CRC on boot bits 15-8
  5414                           ;	BCRCERESH = 0xFF, unprogrammed default
  5415  300015                     	org	3145749
  5416  300015  FF                 	db	255
  5417                           
  5418                           ;Config register CONFIG23 @ 0x300016
  5419                           ;	unspecified, using default values
  5420                           ;	Boot Sector Expected Result for CRC on boot bits 7-0
  5421                           ;	BCRCERESL = 0xFF, unprogrammed default
  5422  300016                     	org	3145750
  5423  300016  FF                 	db	255
  5424                           
  5425                           ;Config register CONFIG24 @ 0x300017
  5426                           ;	Non-Boot Sector Polynomial for CRC on boot bits 31-24
  5427                           ;	CRCPOLT = hFF, Bits 31:24 of CRCPOL are 0xFF
  5428  300017                     	org	3145751
  5429  300017  FF                 	db	255
  5430                           
  5431                           ;Config register CONFIG25 @ 0x300018
  5432                           ;	Non-Boot Sector Polynomial for CRC on boot bits 23-16
  5433                           ;	CRCPOLU = hFF, Bits 23:16 of CRCPOL are 0xFF
  5434  300018                     	org	3145752
  5435  300018  FF                 	db	255
  5436                           
  5437                           ;Config register CONFIG26 @ 0x300019
  5438                           ;	Non-Boot Sector Polynomial for CRC on boot bits 15-8
  5439                           ;	CRCPOLH = hFF, Bits 15:8 of CRCPOL are 0xFF
  5440  300019                     	org	3145753
  5441  300019  FF                 	db	255
  5442                           
  5443                           ;Config register CONFIG27 @ 0x30001A
  5444                           ;	Non-Boot Sector Polynomial for CRC on boot bits 7-0
  5445                           ;	CRCPOLL = hFF, Bits 7:0 of CRCPOL are 0xFF
  5446  30001A                     	org	3145754
  5447  30001A  FF                 	db	255
  5448                           
  5449                           ;Config register CONFIG28 @ 0x30001B
  5450                           ;	Non-Boot Sector Seed for CRC on boot bits 31-24
  5451                           ;	CRCSEEDT = hFF, Bits 31:24 of CRCSEED are 0xFF
  5452  30001B                     	org	3145755
  5453  30001B  FF                 	db	255
  5454                           
  5455                           ;Config register CONFIG29 @ 0x30001C
  5456                           ;	Non-Boot Sector Seed for CRC on boot bits 23-16
  5457                           ;	CRCSEEDU = hFF, Bits 23:16 of CRCSEED are 0xFF
  5458  30001C                     	org	3145756
  5459  30001C  FF                 	db	255
  5460                           
  5461                           ;Config register CONFIG30 @ 0x30001D
  5462                           ;	Non-Boot Sector Seed for CRC on boot bits 15-8
  5463                           ;	CRCSEEDH = hFF, Bits 15:8 of CRCSEED are 0xFF
  5464  30001D                     	org	3145757
  5465  30001D  FF                 	db	255
  5466                           
  5467                           ;Config register CONFIG31 @ 0x30001E
  5468                           ;	Non-Boot Sector Seed for CRC on boot bits 7-0
  5469                           ;	CRCSEEDL = hFF, Bits 7:0 of CRCSEED are 0xFF
  5470  30001E                     	org	3145758
  5471  30001E  FF                 	db	255
  5472                           
  5473                           ;Config register CONFIG32 @ 0x30001F
  5474                           ;	unspecified, using default values
  5475                           ;	Non-Boot Sector Expected Result for CRC on boot bits 31-24
  5476                           ;	CRCEREST = 0xFF, unprogrammed default
  5477  30001F                     	org	3145759
  5478  30001F  FF                 	db	255
  5479                           
  5480                           ;Config register CONFIG33 @ 0x300020
  5481                           ;	unspecified, using default values
  5482                           ;	Non-Boot Sector Expected Result for CRC on boot bits 23-16
  5483                           ;	CRCERESU = 0xFF, unprogrammed default
  5484  300020                     	org	3145760
  5485  300020  FF                 	db	255
  5486                           
  5487                           ;Config register CONFIG34 @ 0x300021
  5488                           ;	unspecified, using default values
  5489                           ;	Non-Boot Sector Expected Result for CRC on boot bits 15-8
  5490                           ;	CRCERESH = 0xFF, unprogrammed default
  5491  300021                     	org	3145761
  5492  300021  FF                 	db	255
  5493                           
  5494                           ;Config register CONFIG35 @ 0x300022
  5495                           ;	unspecified, using default values
  5496                           ;	Non-Boot Sector Expected Result for CRC on boot bits 7-0
  5497                           ;	CRCERESL = 0xFF, unprogrammed default
  5498  300022                     	org	3145762
  5499  300022  FF                 	db	255
  5500                           
  5501                           ; Padding undefined space
  5502  300023                     	org	3145763
  5503  300023  FF                 	db	255
  5504                           tosu	equ	0x4FF
  5505                           tosh	equ	0x4FE
  5506                           tosl	equ	0x4FD
  5507                           stkptr	equ	0x4FC
  5508                           pclatu	equ	0x4FB
  5509                           pclath	equ	0x4FA
  5510                           pcl	equ	0x4F9
  5511                           tblptru	equ	0x4F8
  5512                           tblptrh	equ	0x4F7
  5513                           tblptrl	equ	0x4F6
  5514                           tablat	equ	0x4F5
  5515                           prodh	equ	0x4F4
  5516                           prodl	equ	0x4F3
  5517                           indf0	equ	0x4EF
  5518                           postinc0	equ	0x4EE
  5519                           postdec0	equ	0x4ED
  5520                           preinc0	equ	0x4EC
  5521                           plusw0	equ	0x4EB
  5522                           fsr0h	equ	0x4EA
  5523                           fsr0l	equ	0x4E9
  5524                           wreg	equ	0x4E8
  5525                           indf1	equ	0x4E7
  5526                           postinc1	equ	0x4E6
  5527                           postdec1	equ	0x4E5
  5528                           preinc1	equ	0x4E4
  5529                           plusw1	equ	0x4E3
  5530                           fsr1h	equ	0x4E2
  5531                           fsr1l	equ	0x4E1
  5532                           bsr	equ	0x4E0
  5533                           indf2	equ	0x4DF
  5534                           postinc2	equ	0x4DE
  5535                           postdec2	equ	0x4DD
  5536                           preinc2	equ	0x4DC
  5537                           plusw2	equ	0x4DB
  5538                           fsr2h	equ	0x4DA
  5539                           fsr2l	equ	0x4D9
  5540                           status	equ	0x4D8

Data Sizes:
    Strings     68
    Constant    0
    Data        0
    BSS         68
    Persistent  18
    Stack       0

Auto Spaces:
    Space          Size  Autos    Used
    COMRAM           95     95      95
    BANK5           160      8      94
    BANK6           256      0       0
    BANK7           256      0       0
    BANK8           256      0       0
    BANK9           256      0       0
    BANK10          256      0       0
    BANK11          256      0       0
    BANK12          256      0       0
    BANK13          256      0       0
    BANK14          256      0       0
    BANK15          256      0       0
    BANK16          256      0       0
    BANK17          256      0       0
    BANK18          256      0       0
    BANK19          256      0       0
    BANK20          256      0       0
    BANK21          256      0       0
    BANK22          256      0       0
    BANK23          256      0       0
    BANK24          256      0       0
    BANK25          256      0       0
    BANK26          256      0       0
    BANK27          256      0       0
    BANK28          256      0       0
    BANK29          256      0       0
    BANK30          256      0       0
    BANK31          256      0       0
    BANK32          256      0       0
    BANK33          256      0       0
    BANK34          256      0       0
    BANK35          256      0       0
    BANK36          256      0       0
    BANK37          256      0       0
    BANK38          256      0       0
    BANK39          256      0       0
    BANK40          256      0       0
    BANK41          256      0       0
    BANK42          256      0       0
    BANK43          256      0       0
    BANK44          256      0       0
    BANK45          256      0       0
    BANK46          256      0       0
    BANK47          256      0       0
    BANK48          256      0       0
    BANK49          256      0       0
    BANK50          256      0       0
    BANK51          256      0       0
    BANK52          256      0       0
    BANK53          256      0       0
    BANK54          256      0       0
    BANK55          256      0       0

Pointer List with Targets:

    strlen@s	PTR const unsigned char  size(2) Largest target is 32
		 -> dbuf(BANK5[32]), 

    strlen@a	PTR const unsigned char  size(2) Largest target is 32
		 -> dbuf(BANK5[32]), 

    fputs@s	PTR const unsigned char  size(2) Largest target is 32
		 -> dbuf(BANK5[32]), 

    fputs@fp	PTR struct _IO_FILE size(2) Largest target is 0
		 -> NULL(NULL[0]), 

    S1773_IO_FILE$buffer	PTR unsigned char  size(2) Largest target is 0

    fputc@fp.buffer	PTR unsigned char  size(2) Largest target is 0

    fputc@fp	PTR struct _IO_FILE size(2) Largest target is 0
		 -> NULL(NULL[0]), 

    vfprintf@ap	PTR PTR void  size(2) Largest target is 2
		 -> printf@ap(COMRAM[2]), 

    vfprintf@fp	PTR struct _IO_FILE size(2) Largest target is 0
		 -> NULL(NULL[0]), 

    vfprintf@fmt	PTR const unsigned char  size(2) Largest target is 17
		 -> STR_5(CODE[3]), STR_4(CODE[17]), STR_3(CODE[17]), STR_2(CODE[17]), 
		 -> STR_1(CODE[17]), 

    vfprintf@cfmt	PTR unsigned char  size(2) Largest target is 17
		 -> STR_5(CODE[3]), STR_4(CODE[17]), STR_3(CODE[17]), STR_2(CODE[17]), 
		 -> STR_1(CODE[17]), 

    vfpfcnvrt@fp	PTR struct _IO_FILE size(2) Largest target is 0
		 -> NULL(NULL[0]), 

    vfpfcnvrt@ap	PTR PTR void  size(2) Largest target is 2
		 -> printf@ap(COMRAM[2]), 

    vfpfcnvrt@fmt	PTR PTR unsigned char  size(2) Largest target is 2
		 -> vfprintf@cfmt(COMRAM[2]), 

    dtoa@fp	PTR struct _IO_FILE size(2) Largest target is 0
		 -> NULL(NULL[0]), 

    pad@fp	PTR struct _IO_FILE size(2) Largest target is 0
		 -> NULL(NULL[0]), 

    pad@buf	PTR unsigned char  size(2) Largest target is 32
		 -> dbuf(BANK5[32]), 

    printf@fmt	PTR const unsigned char  size(2) Largest target is 17
		 -> STR_5(CODE[3]), STR_4(CODE[17]), STR_3(CODE[17]), STR_2(CODE[17]), 
		 -> STR_1(CODE[17]), 

    printf@ap	PTR void [1] size(2) Largest target is 2
		 -> ?_printf(COMRAM[2]), 

    UART1_SetErrorHandler@interruptHandler	PTR FTN()void  size(3) Largest target is 1
		 -> UART1_DefaultErrorHandler(), 

    UART1_SetOverrunErrorHandler@interruptHandler	PTR FTN()void  size(3) Largest target is 1
		 -> UART1_DefaultOverrunErrorHandler(), 

    UART1_SetFramingErrorHandler@interruptHandler	PTR FTN()void  size(3) Largest target is 1
		 -> UART1_DefaultFramingErrorHandler(), 

    UART1_ErrorHandler	PTR FTN()void  size(3) Largest target is 1
		 -> Absolute function(), UART1_DefaultErrorHandler(), 

    UART1_OverrunErrorHandler	PTR FTN()void  size(3) Largest target is 1
		 -> Absolute function(), UART1_DefaultOverrunErrorHandler(), 

    UART1_FramingErrorHandler	PTR FTN()void  size(3) Largest target is 1
		 -> Absolute function(), UART1_DefaultFramingErrorHandler(), 

    ADC_SetActiveClockTuningInterruptHandler@InterruptHandler	PTR FTN()void  size(3) Largest target is 1
		 -> ADC_DefaultActiveClockTuning_ISR(), 

    ADC_SetContext4ThresholdInterruptHandler@InterruptHandler	PTR FTN()void  size(3) Largest target is 1
		 -> ADC_UserContext4Threshold_ISR(), ADC_DefaultContext4Threshold_ISR(), 

    ADC_SetContext3ThresholdInterruptHandler@InterruptHandler	PTR FTN()void  size(3) Largest target is 1
		 -> ADC_DefaultContext3Threshold_ISR(), 

    ADC_SetContext2ThresholdInterruptHandler@InterruptHandler	PTR FTN()void  size(3) Largest target is 1
		 -> ADC_DefaultContext2Threshold_ISR(), 

    ADC_SetContext1ThresholdInterruptHandler@InterruptHandler	PTR FTN()void  size(3) Largest target is 1
		 -> ADC_DefaultContext1Threshold_ISR(), 

    ADC_SetADIInterruptHandler@InterruptHandler	PTR FTN()void  size(3) Largest target is 1
		 -> ADC_DefaultADI_ISR(), 

    ADC_Context4Thereshld_ISR	PTR FTN()void  size(3) Largest target is 1
		 -> Absolute function(), ADC_UserContext4Threshold_ISR(), ADC_DefaultContext4Threshold_ISR(), 

    ADC_Context3Thereshld_ISR	PTR FTN()void  size(3) Largest target is 1
		 -> Absolute function(), ADC_DefaultContext3Threshold_ISR(), 

    ADC_Context2Thereshld_ISR	PTR FTN()void  size(3) Largest target is 1
		 -> Absolute function(), ADC_DefaultContext2Threshold_ISR(), 

    ADC_Context1Thereshld_ISR	PTR FTN()void  size(3) Largest target is 1
		 -> Absolute function(), ADC_DefaultContext1Threshold_ISR(), 

    ADC_ActiveClockTuning_ISR	PTR FTN()void  size(3) Largest target is 1
		 -> Absolute function(), ADC_DefaultActiveClockTuning_ISR(), 

    ADC_ConversionComplete_ISR	PTR FTN()void  size(3) Largest target is 1
		 -> Absolute function(), ADC_DefaultADI_ISR(), 


Critical Paths under _main in COMRAM

    None.

Critical Paths under _INTERRUPT_InterruptManager in COMRAM

    _ADC_UserContext4Threshold_ISR->_printf
    _printf->_vfprintf
    _vfprintf->_vfpfcnvrt
    _vfpfcnvrt->_dtoa
    _dtoa->_pad
    _pad->_fputs
    _fputs->_fputc
    _fputc->_putch
    _putch->_UART1_Write
    _abs->___aomod

Critical Paths under _main in BANK5

    _main->_ADC_SetContext4ThresholdInterruptHandler
    _UART1_Initialize->_UART1_SetErrorHandler
    _UART1_Initialize->_UART1_SetFramingErrorHandler
    _UART1_Initialize->_UART1_SetOverrunErrorHandler
    _ADC_Initialize->_ADC_SetADIInterruptHandler
    _ADC_Initialize->_ADC_SetActiveClockTuningInterruptHandler
    _ADC_Initialize->_ADC_SetContext1ThresholdInterruptHandler
    _ADC_Initialize->_ADC_SetContext2ThresholdInterruptHandler
    _ADC_Initialize->_ADC_SetContext3ThresholdInterruptHandler
    _ADC_Initialize->_ADC_SetContext4ThresholdInterruptHandler

Critical Paths under _INTERRUPT_InterruptManager in BANK5

    _ADC_ADCH4_ISR->_ADC_UserContext4Threshold_ISR

Critical Paths under _main in BANK6

    None.

Critical Paths under _INTERRUPT_InterruptManager in BANK6

    None.

Critical Paths under _main in BANK7

    None.

Critical Paths under _INTERRUPT_InterruptManager in BANK7

    None.

Critical Paths under _main in BANK8

    None.

Critical Paths under _INTERRUPT_InterruptManager in BANK8

    None.

Critical Paths under _main in BANK9

    None.

Critical Paths under _INTERRUPT_InterruptManager in BANK9

    None.

Critical Paths under _main in BANK10

    None.

Critical Paths under _INTERRUPT_InterruptManager in BANK10

    None.

Critical Paths under _main in BANK11

    None.

Critical Paths under _INTERRUPT_InterruptManager in BANK11

    None.

Critical Paths under _main in BANK12

    None.

Critical Paths under _INTERRUPT_InterruptManager in BANK12

    None.

Critical Paths under _main in BANK13

    None.

Critical Paths under _INTERRUPT_InterruptManager in BANK13

    None.

Critical Paths under _main in BANK14

    None.

Critical Paths under _INTERRUPT_InterruptManager in BANK14

    None.

Critical Paths under _main in BANK15

    None.

Critical Paths under _INTERRUPT_InterruptManager in BANK15

    None.

Critical Paths under _main in BANK16

    None.

Critical Paths under _INTERRUPT_InterruptManager in BANK16

    None.

Critical Paths under _main in BANK17

    None.

Critical Paths under _INTERRUPT_InterruptManager in BANK17

    None.

Critical Paths under _main in BANK18

    None.

Critical Paths under _INTERRUPT_InterruptManager in BANK18

    None.

Critical Paths under _main in BANK19

    None.

Critical Paths under _INTERRUPT_InterruptManager in BANK19

    None.

Critical Paths under _main in BANK20

    None.

Critical Paths under _INTERRUPT_InterruptManager in BANK20

    None.

Critical Paths under _main in BANK21

    None.

Critical Paths under _INTERRUPT_InterruptManager in BANK21

    None.

Critical Paths under _main in BANK22

    None.

Critical Paths under _INTERRUPT_InterruptManager in BANK22

    None.

Critical Paths under _main in BANK23

    None.

Critical Paths under _INTERRUPT_InterruptManager in BANK23

    None.

Critical Paths under _main in BANK24

    None.

Critical Paths under _INTERRUPT_InterruptManager in BANK24

    None.

Critical Paths under _main in BANK25

    None.

Critical Paths under _INTERRUPT_InterruptManager in BANK25

    None.

Critical Paths under _main in BANK26

    None.

Critical Paths under _INTERRUPT_InterruptManager in BANK26

    None.

Critical Paths under _main in BANK27

    None.

Critical Paths under _INTERRUPT_InterruptManager in BANK27

    None.

Critical Paths under _main in BANK28

    None.

Critical Paths under _INTERRUPT_InterruptManager in BANK28

    None.

Critical Paths under _main in BANK29

    None.

Critical Paths under _INTERRUPT_InterruptManager in BANK29

    None.

Critical Paths under _main in BANK30

    None.

Critical Paths under _INTERRUPT_InterruptManager in BANK30

    None.

Critical Paths under _main in BANK31

    None.

Critical Paths under _INTERRUPT_InterruptManager in BANK31

    None.

Critical Paths under _main in BANK32

    None.

Critical Paths under _INTERRUPT_InterruptManager in BANK32

    None.

Critical Paths under _main in BANK33

    None.

Critical Paths under _INTERRUPT_InterruptManager in BANK33

    None.

Critical Paths under _main in BANK34

    None.

Critical Paths under _INTERRUPT_InterruptManager in BANK34

    None.

Critical Paths under _main in BANK35

    None.

Critical Paths under _INTERRUPT_InterruptManager in BANK35

    None.

Critical Paths under _main in BANK36

    None.

Critical Paths under _INTERRUPT_InterruptManager in BANK36

    None.

Critical Paths under _main in BANK37

    None.

Critical Paths under _INTERRUPT_InterruptManager in BANK37

    None.

Critical Paths under _main in BANK38

    None.

Critical Paths under _INTERRUPT_InterruptManager in BANK38

    None.

Critical Paths under _main in BANK39

    None.

Critical Paths under _INTERRUPT_InterruptManager in BANK39

    None.

Critical Paths under _main in BANK40

    None.

Critical Paths under _INTERRUPT_InterruptManager in BANK40

    None.

Critical Paths under _main in BANK41

    None.

Critical Paths under _INTERRUPT_InterruptManager in BANK41

    None.

Critical Paths under _main in BANK42

    None.

Critical Paths under _INTERRUPT_InterruptManager in BANK42

    None.

Critical Paths under _main in BANK43

    None.

Critical Paths under _INTERRUPT_InterruptManager in BANK43

    None.

Critical Paths under _main in BANK44

    None.

Critical Paths under _INTERRUPT_InterruptManager in BANK44

    None.

Critical Paths under _main in BANK45

    None.

Critical Paths under _INTERRUPT_InterruptManager in BANK45

    None.

Critical Paths under _main in BANK46

    None.

Critical Paths under _INTERRUPT_InterruptManager in BANK46

    None.

Critical Paths under _main in BANK47

    None.

Critical Paths under _INTERRUPT_InterruptManager in BANK47

    None.

Critical Paths under _main in BANK48

    None.

Critical Paths under _INTERRUPT_InterruptManager in BANK48

    None.

Critical Paths under _main in BANK49

    None.

Critical Paths under _INTERRUPT_InterruptManager in BANK49

    None.

Critical Paths under _main in BANK50

    None.

Critical Paths under _INTERRUPT_InterruptManager in BANK50

    None.

Critical Paths under _main in BANK51

    None.

Critical Paths under _INTERRUPT_InterruptManager in BANK51

    None.

Critical Paths under _main in BANK52

    None.

Critical Paths under _INTERRUPT_InterruptManager in BANK52

    None.

Critical Paths under _main in BANK53

    None.

Critical Paths under _INTERRUPT_InterruptManager in BANK53

    None.

Critical Paths under _main in BANK54

    None.

Critical Paths under _INTERRUPT_InterruptManager in BANK54

    None.

Critical Paths under _main in BANK55

    None.

Critical Paths under _INTERRUPT_InterruptManager in BANK55

    None.

Call Graph Tables:

 ---------------------------------------------------------------------------------
 (Depth) Function   	        Calls       Base Space   Used Autos Params    Refs
 ---------------------------------------------------------------------------------
 (0) _main                                                 0     0      0    1154
        _ADC_DisableChannelSequencer
         _ADC_EnableChannelSequencer
                  _ADC_SelectContext
_ADC_SetContext4ThresholdInterruptHa
                  _SYSTEM_Initialize
                    _TMR0_StartTimer
 ---------------------------------------------------------------------------------
 (1) _TMR0_StartTimer                                      0     0      0       0
 ---------------------------------------------------------------------------------
 (1) _SYSTEM_Initialize                                    0     0      0     958
                     _ADC_Initialize
               _INTERRUPT_Initialize
              _OSCILLATOR_Initialize
             _PIN_MANAGER_Initialize
                     _PMD_Initialize
                    _TMR0_Initialize
                   _UART1_Initialize
 ---------------------------------------------------------------------------------
 (2) _UART1_Initialize                                     0     0      0     294
              _UART1_SetErrorHandler
       _UART1_SetFramingErrorHandler
       _UART1_SetOverrunErrorHandler
 ---------------------------------------------------------------------------------
 (3) _UART1_SetOverrunErrorHandler                         3     0      3      98
                                              5 BANK5      3     0      3
 ---------------------------------------------------------------------------------
 (3) _UART1_SetFramingErrorHandler                         3     0      3      98
                                              5 BANK5      3     0      3
 ---------------------------------------------------------------------------------
 (3) _UART1_SetErrorHandler                                3     0      3      98
                                              5 BANK5      3     0      3
 ---------------------------------------------------------------------------------
 (2) _TMR0_Initialize                                      0     0      0       0
 ---------------------------------------------------------------------------------
 (2) _PMD_Initialize                                       0     0      0       0
 ---------------------------------------------------------------------------------
 (2) _PIN_MANAGER_Initialize                               0     0      0       0
 ---------------------------------------------------------------------------------
 (2) _OSCILLATOR_Initialize                                0     0      0       0
 ---------------------------------------------------------------------------------
 (2) _INTERRUPT_Initialize                                 0     0      0       0
 ---------------------------------------------------------------------------------
 (2) _ADC_Initialize                                       0     0      0     664
         _ADC_SetADIInterruptHandler
_ADC_SetActiveClockTuningInterruptHa
_ADC_SetContext1ThresholdInterruptHa
_ADC_SetContext2ThresholdInterruptHa
_ADC_SetContext3ThresholdInterruptHa
_ADC_SetContext4ThresholdInterruptHa
 ---------------------------------------------------------------------------------
 (3) _ADC_SetContext4ThresholdInterruptHandler             3     0      3     174
                                              5 BANK5      3     0      3
 ---------------------------------------------------------------------------------
 (3) _ADC_SetContext3ThresholdInterruptHandler             3     0      3      98
                                              5 BANK5      3     0      3
 ---------------------------------------------------------------------------------
 (3) _ADC_SetContext2ThresholdInterruptHandler             3     0      3      98
                                              5 BANK5      3     0      3
 ---------------------------------------------------------------------------------
 (3) _ADC_SetContext1ThresholdInterruptHandler             3     0      3      98
                                              5 BANK5      3     0      3
 ---------------------------------------------------------------------------------
 (3) _ADC_SetActiveClockTuningInterruptHandler             3     0      3      98
                                              5 BANK5      3     0      3
 ---------------------------------------------------------------------------------
 (3) _ADC_SetADIInterruptHandler                           3     0      3      98
                                              5 BANK5      3     0      3
 ---------------------------------------------------------------------------------
 (1) _ADC_SelectContext                                    1     1      0      22
                                              5 BANK5      1     1      0
 ---------------------------------------------------------------------------------
 (1) _ADC_EnableChannelSequencer                           0     0      0       0
 ---------------------------------------------------------------------------------
 (1) _ADC_DisableChannelSequencer                          0     0      0       0
 ---------------------------------------------------------------------------------
 Estimated maximum stack depth 3
 ---------------------------------------------------------------------------------
 (Depth) Function   	        Calls       Base Space   Used Autos Params    Refs
 ---------------------------------------------------------------------------------
 (4) _INTERRUPT_InterruptManager                           4     4      0    6495
                                              1 BANK5      4     4      0
                      _ADC_ADCH4_ISR
 ---------------------------------------------------------------------------------
 (5) _ADC_ADCH4_ISR                                        0     0      0    6495
                   Absolute function *
   _ADC_DefaultContext4Threshold_ISR *
      _ADC_UserContext4Threshold_ISR *
 ---------------------------------------------------------------------------------
 (6) _ADC_UserContext4Threshold_ISR                        1     1      0    6495
                                              0 BANK5      1     1      0
            _ADC_GetConversionResult
                             _printf
      i2_ADC_DisableChannelSequencer
       i2_ADC_EnableChannelSequencer
                i2_ADC_SelectContext
 ---------------------------------------------------------------------------------
 (7) i2_ADC_SelectContext                                  1     1      0      22
                                              0 COMRAM     1     1      0
 ---------------------------------------------------------------------------------
 (7) i2_ADC_EnableChannelSequencer                         0     0      0       0
 ---------------------------------------------------------------------------------
 (7) i2_ADC_DisableChannelSequencer                        0     0      0       0
 ---------------------------------------------------------------------------------
 (7) _printf                                               8     4      4    6473
                                             89 COMRAM     6     2      4
                           _vfprintf
 ---------------------------------------------------------------------------------
 (8) _vfprintf                                             8     2      6    6039
                                             81 COMRAM     8     2      6
                          _vfpfcnvrt
 ---------------------------------------------------------------------------------
 (9) _vfpfcnvrt                                           42    36      6    5685
                                             65 COMRAM    16    10      6
                               _dtoa
                              _fputc
 ---------------------------------------------------------------------------------
 (10) _dtoa                                               36    26     10    4314
                                             29 COMRAM    36    26     10
                            ___aodiv
                            ___aomod
                                _abs
                                _pad
 ---------------------------------------------------------------------------------
 (11) _pad                                                11     5      6    2665
                                             18 COMRAM    11     5      6
                              _fputc
                              _fputs
                             _strlen
 ---------------------------------------------------------------------------------
 (12) _strlen                                              4     2      2     166
                                              0 COMRAM     4     2      2
 ---------------------------------------------------------------------------------
 (12) _fputs                                               7     3      4    1213
                                             11 COMRAM     7     3      4
                              _fputc
 ---------------------------------------------------------------------------------
 (10) _fputc                                               9     5      4     812
                                              2 COMRAM     9     5      4
                              _putch
 ---------------------------------------------------------------------------------
 (11) _putch                                               1     1      0      44
                                              1 COMRAM     1     1      0
                        _UART1_Write
 ---------------------------------------------------------------------------------
 (12) _UART1_Write                                         1     1      0      22
                                              0 COMRAM     1     1      0
 ---------------------------------------------------------------------------------
 (11) _abs                                                 4     2      2     142
                                             18 COMRAM     4     2      2
                            ___aomod (ARG)
 ---------------------------------------------------------------------------------
 (11) ___aomod                                            18     2     16     448
                                              0 COMRAM    18     2     16
 ---------------------------------------------------------------------------------
 (11) ___aodiv                                            26    10     16     452
                                              0 COMRAM    26    10     16
 ---------------------------------------------------------------------------------
 (7) _ADC_GetConversionResult                              4     2      2       0
                                              0 COMRAM     4     2      2
 ---------------------------------------------------------------------------------
 (6) _ADC_DefaultContext4Threshold_ISR                     0     0      0       0
 ---------------------------------------------------------------------------------
 (6) Absolute function(Fake)                               0     0      0       0
 ---------------------------------------------------------------------------------
 Estimated maximum stack depth 12
 ---------------------------------------------------------------------------------

 Call Graph Graphs:

 _main (ROOT)
   _ADC_DisableChannelSequencer
   _ADC_EnableChannelSequencer
   _ADC_SelectContext
   _ADC_SetContext4ThresholdInterruptHandler
   _SYSTEM_Initialize
     _ADC_Initialize
       _ADC_SetADIInterruptHandler
       _ADC_SetActiveClockTuningInterruptHandler
       _ADC_SetContext1ThresholdInterruptHandler
       _ADC_SetContext2ThresholdInterruptHandler
       _ADC_SetContext3ThresholdInterruptHandler
       _ADC_SetContext4ThresholdInterruptHandler
     _INTERRUPT_Initialize
     _OSCILLATOR_Initialize
     _PIN_MANAGER_Initialize
     _PMD_Initialize
     _TMR0_Initialize
     _UART1_Initialize
       _UART1_SetErrorHandler
       _UART1_SetFramingErrorHandler
       _UART1_SetOverrunErrorHandler
   _TMR0_StartTimer

 _INTERRUPT_InterruptManager (ROOT)
   _ADC_ADCH4_ISR
     Absolute function(Fake) *
     _ADC_DefaultContext4Threshold_ISR *
     _ADC_UserContext4Threshold_ISR *
       _ADC_GetConversionResult
       _printf
         _vfprintf
           _vfpfcnvrt
             _dtoa
               ___aodiv
               ___aomod
               _abs
                 ___aomod (ARG)
               _pad
                 _fputc
                   _putch
                     _UART1_Write
                 _fputs
                   _fputc
                 _strlen
             _fputc
       i2_ADC_DisableChannelSequencer
       i2_ADC_EnableChannelSequencer
       i2_ADC_SelectContext

 Address spaces:
Name               Size   Autos  Total    Cost      Usage
BIGRAM            32FF      0       0     107        0.0%
EEDATA             400      0       0       0        0.0%
BITBANK55          100      0       0     105        0.0%
BANK55             100      0       0     106        0.0%
BITBANK54          100      0       0     103        0.0%
BANK54             100      0       0     104        0.0%
BITBANK53          100      0       0     101        0.0%
BANK53             100      0       0     102        0.0%
BITBANK52          100      0       0      99        0.0%
BANK52             100      0       0     100        0.0%
BITBANK51          100      0       0      97        0.0%
BANK51             100      0       0      98        0.0%
BITBANK50          100      0       0      95        0.0%
BANK50             100      0       0      96        0.0%
BITBANK49          100      0       0      93        0.0%
BANK49             100      0       0      94        0.0%
BITBANK48          100      0       0      91        0.0%
BANK48             100      0       0      92        0.0%
BITBANK47          100      0       0      89        0.0%
BANK47             100      0       0      90        0.0%
BITBANK46          100      0       0      87        0.0%
BANK46             100      0       0      88        0.0%
BITBANK45          100      0       0      85        0.0%
BANK45             100      0       0      86        0.0%
BITBANK44          100      0       0      83        0.0%
BANK44             100      0       0      84        0.0%
BITBANK43          100      0       0      81        0.0%
BANK43             100      0       0      82        0.0%
BITBANK42          100      0       0      79        0.0%
BANK42             100      0       0      80        0.0%
BITBANK41          100      0       0      77        0.0%
BANK41             100      0       0      78        0.0%
BITBANK40          100      0       0      75        0.0%
BANK40             100      0       0      76        0.0%
BITBANK39          100      0       0      73        0.0%
BANK39             100      0       0      74        0.0%
BITBANK38          100      0       0      71        0.0%
BANK38             100      0       0      72        0.0%
BITBANK37          100      0       0      69        0.0%
BANK37             100      0       0      70        0.0%
BITBANK36          100      0       0      67        0.0%
BANK36             100      0       0      68        0.0%
BITBANK35          100      0       0      65        0.0%
BANK35             100      0       0      66        0.0%
BITBANK34          100      0       0      63        0.0%
BANK34             100      0       0      64        0.0%
BITBANK33          100      0       0      61        0.0%
BANK33             100      0       0      62        0.0%
BITBANK32          100      0       0      59        0.0%
BANK32             100      0       0      60        0.0%
BITBANK31          100      0       0      57        0.0%
BANK31             100      0       0      58        0.0%
BITBANK30          100      0       0      55        0.0%
BANK30             100      0       0      56        0.0%
BITBANK29          100      0       0      53        0.0%
BANK29             100      0       0      54        0.0%
BITBANK28          100      0       0      51        0.0%
BANK28             100      0       0      52        0.0%
BITBANK27          100      0       0      48        0.0%
BANK27             100      0       0      49        0.0%
BITBANK26          100      0       0      46        0.0%
BANK26             100      0       0      47        0.0%
BITBANK25          100      0       0      44        0.0%
BANK25             100      0       0      45        0.0%
BITBANK24          100      0       0      42        0.0%
BANK24             100      0       0      43        0.0%
BITBANK23          100      0       0      40        0.0%
BANK23             100      0       0      41        0.0%
BITBANK22          100      0       0      38        0.0%
BANK22             100      0       0      39        0.0%
BITBANK21          100      0       0      36        0.0%
BANK21             100      0       0      37        0.0%
BITBANK20          100      0       0      34        0.0%
BANK20             100      0       0      35        0.0%
BITBANK19          100      0       0      32        0.0%
BANK19             100      0       0      33        0.0%
BITBANK18          100      0       0      30        0.0%
BANK18             100      0       0      31        0.0%
BITBANK17          100      0       0      28        0.0%
BANK17             100      0       0      29        0.0%
BITBANK16          100      0       0      26        0.0%
BANK16             100      0       0      27        0.0%
BITBANK15          100      0       0      24        0.0%
BANK15             100      0       0      25        0.0%
BITBANK14          100      0       0      22        0.0%
BANK14             100      0       0      23        0.0%
BITBANK13          100      0       0      20        0.0%
BANK13             100      0       0      21        0.0%
BITBANK12          100      0       0      18        0.0%
BANK12             100      0       0      19        0.0%
BITBANK11          100      0       0      16        0.0%
BANK11             100      0       0      17        0.0%
BITBANK10          100      0       0      14        0.0%
BANK10             100      0       0      15        0.0%
BITBANK9           100      0       0      12        0.0%
BANK9              100      0       0      13        0.0%
BITBANK8           100      0       0      10        0.0%
BANK8              100      0       0      11        0.0%
BITBANK7           100      0       0       8        0.0%
BANK7              100      0       0       9        0.0%
BITBANK6           100      0       0       6        0.0%
BANK6              100      0       0       7        0.0%
BITBANK5            A0      0       0       4        0.0%
BANK5               A0      8      5E       5       58.8%
BITCOMRAM           5F      0       0       0        0.0%
COMRAM              5F     5F      5F       1      100.0%
BITSFR_5             0      0       0     200        0.0%
SFR_5                0      0       0     200        0.0%
BITSFR_4             0      0       0     200        0.0%
SFR_4                0      0       0     200        0.0%
BITSFR_3             0      0       0     200        0.0%
SFR_3                0      0       0     200        0.0%
BITSFR_2             0      0       0     200        0.0%
SFR_2                0      0       0     200        0.0%
BITSFR_1             0      0       0     200        0.0%
SFR_1                0      0       0     200        0.0%
BITSFR               0      0       0     200        0.0%
SFR                  0      0       0     200        0.0%
STACK                0      0       0       2        0.0%
NULL                 0      0       0       0        0.0%
ABS                  0      0      BD      50        0.0%
DATA                 0      0      BD       3        0.0%
CODE                 0      0       0       0        0.0%


Microchip Technology PIC18 Macro Assembler V2.32 build 20210201212658 
Symbol Table                                                                                   Fri May 21 15:56:03 2021

                                                      l11 49AE  
                                                      l71 4846  
                                                      l65 48AA  
                                                      l74 4820  
                                                      l68 4838  
                                                     l220 4998  
                                                     l223 499E  
                                                     l217 3D68  
                                                     l229 4978  
                                                     l510 4992  
                                                     l363 496C  
                                                     l507 48D8  
                                                     l372 4934  
                                                     l700 47F2  
                                                     l366 4950  
                                                     l375 4926  
                                                     l369 4942  
                                                     l641 4918  
                                                     l378 495E  
                                                     l635 490A  
                                                     l638 48FC  
                                                     l489 4506  
                                                     l588 4618  
                                                     l699 47F2  
                                                     _abs 471A  
                                                     _pad 43AA  
                                 __size_of_PMD_Initialize 0028  
                                                     tosl 0004FD  
                                                     wreg 0004E8  
                    __end_ofi2_ADC_EnableChannelSequencer 49A6  
                   __size_ofi2_ADC_EnableChannelSequencer 0006  
                            i2_ADC_EnableChannelSequencer 49A0  
                                                    ?_abs 0513  
                                                    l2500 3B2A  
                                                    l2430 4936  
                                                    l2510 3CF0  
                                                    l2502 3CE8  
                                                    l2432 4928  
                                                    l2520 3D1A  
                                                    l2512 3CF2  
                                                    l2504 3CEA  
                                                    l2426 4960  
                                                    l2434 491A  
                                                    l2522 3D2C  
                                                    l2514 3CF4  
                                                    l2506 3CEC  
                                                    l2530 48C4  
                                                    l2442 48FE  
                                                    l2610 4892  
                                                    l2436 4952  
                                                    l2428 4944  
                                                    l2524 3D3E  
                                                    l2516 3CF6  
                                                    l2508 3CEE  
                                                    l2460 49AC  
                                                    l2532 48D2  
                                                    l2444 48F0  
                                                    l2540 4600  
                                                    l2620 48A6  
                                                    l2612 4896  
                                                    l2700 47E8  
                                                    l2622 4994  
                                                    l2526 3D50  
                                                    l2518 3D08  
                                                    l2470 4494  
                                                    l2462 47FA  
                                                    l2446 490C  
                                                    l2542 4612  
                                                    l2534 459E  
                                                    l2614 489A  
                                                    l2702 47EC  
                                                    l2624 499A  
                                                    l2528 4822  
                                                    l2480 44DC  
                                                    l2472 4496  
                                                    l2464 4470  
                                                    l2536 45DC  
                                                    l2616 489E  
                                                    l2608 488E  
                                                    l2704 47F0  
                                                    l2626 4972  
                                                    l2490 44EA  
                                                    l2482 44DE  
                                                    l2474 4498  
                                                    l2466 4490  
                                                    l2538 45EE  
                                                    l2618 48A2  
                                                    l2492 44EC  
                                                    l2484 44E0  
                                                    l2476 449C  
                                                    l2468 4492  
                                                    l2628 498E  
                                                    l2494 44EE  
                                                    l2486 44E2  
                                                    l2478 44AA  
                                                    l2496 44F0  
                                                    l2488 44E8  
                                                    l2498 44F6  
                                                    l2694 47C8  
                                                    ?_pad 0513  
                                                    l2696 47DE  
                                                    l2698 47E2  
                                                    _ADCP 0003D8  
                                                    STR_1 3801  
                                                    STR_2 3812  
                                                    STR_3 3823  
                                                    STR_4 3834  
                                                    STR_5 380F  
                                                    u1210 4846  
                                                    u1211 4842  
                                                    _LATA 0004BE  
                                                    _LATB 0004BF  
                                                    _LATC 0004C0  
                                                    _LATD 0004C1  
                                                    _LATE 0004C2  
                                                    _LATF 0004C3  
                                                    _PMD0 000060  
                                                    _PMD1 000061  
                                                    _PMD2 000062  
                                                    _PMD3 000063  
                                                    _PMD4 000064  
                                                    _PMD5 000065  
                                                    _PMD6 000066  
                                                    _PMD7 000067  
                                                    _PMD8 000068  
                                                    i2l18 46BC  
                                                    _PLLR 000590  
                                                    _WPUA 000401  
                                                    _WPUB 000409  
                                                    _WPUC 000411  
                                                    _WPUD 000419  
                                                    _WPUE 000421  
                                                    _WPUF 000429  
                                                    abs@a 0513  
                                                    _dbuf 0584  
                                                    _main 47C8  
                                                    _dtoa 3846  
                                                    _prec 056D  
                                         _TMR0_StartTimer 498E  
                                                    _nout 0569  
                                                    pad@i 051A  
                                                    pad@p 0517  
                                                    fsr1h 0004E2  
                                                    fsr2h 0004DA  
                                                    indf2 0004DF  
                                                    fsr1l 0004E1  
                                                    pad@w 051C  
                                                    fsr2l 0004D9  
                                                    start 001A  
                                            ___param_bank 000000  
                                           _ADC_ADCH4_ISR 4794  
                                                   ??_abs 0515  
                                                   ??_pad 0519  
                                 __end_of_TMR0_Initialize 48DA  
                          __size_of_OSCILLATOR_Initialize 0026  
                           __end_of_OSCILLATOR_Initialize 4848  
                                         __end_of___aodiv 40F2  
                            ?_ADC_DisableChannelSequencer 0501  
                                                   _ADACT 0003F9  
                                                   _ADCAP 0003F0  
                                                   ?_main 0501  
                                                   ?_dtoa 051E  
                                                   _ADCLK 0003FA  
                                         __end_of___aomod 4256  
                                                   _ADCNT 0003E6  
                                                   _ADCTX 0003FB  
                                                   _ADPCH 0003EC  
                                                   _ADREF 0003F8  
                                                   _ADRPT 0003E7  
                                                   _U1P1H 0002A6  
                                                   _U1P2H 0002A8  
                                                   _U1P1L 0002A5  
                                                   _U1P3H 0002AA  
                                                   _U1P2L 0002A7  
                                                   _U1P3L 0002A9  
                                                   _U1UIR 0002B1  
                                                   _U1RXB 0002A1  
                                                   _U1TXB 0002A3  
                                                   i2l220 49A4  
                                                   i2l223 49AA  
                                                   i2l229 4982  
                                                   i2l360 47C6  
                                                   i2l258 48EE  
                                                   i2l614 48AE  
                                                   i2l623 498C  
                                                   i2l617 48C2  
                                                   i2l393 49B0  
                                                   i2l832 4254  
                                                   i2l819 40F0  
                                                   i2l684 43A8  
                                                   _OSCEN 0000B3  
                                            vfpfcnvrt@fmt 0544  
                                                   _TMR0H 000319  
                                                   _TMR0L 000318  
                                                   _TRISA 0004C6  
                                                   _TRISB 0004C7  
                                                   _TRISC 0004C8  
                                                   _TRISD 0004C9  
                                                   _TRISE 0004CA  
                                                   _TRISF 0004CB  
            ADC_UserContext4Threshold_ISR@convertedValue1 0581  
            ADC_UserContext4Threshold_ISR@convertedValue2 057F  
            ADC_UserContext4Threshold_ISR@convertedValue3 057D  
            ADC_UserContext4Threshold_ISR@convertedValue4 057B  
                        __size_of_ADC_GetConversionResult 0016  
                               _ADC_Context3Thereshld_ISR 05AA  
                                                   _flags 056F  
                                                   _fputc 4508  
                                                   _fputs 46D6  
                                                   pad@fp 0513  
                                                   _width 056B  
                                                   _putch 4984  
                                                   dtoa@d 0520  
                                                   dtoa@i 0540  
                                                   dtoa@n 0538  
                                                   dtoa@p 0532  
                                                   dtoa@s 0536  
                                                   dtoa@w 0534  
                                                   pclath 0004FA  
                                                   tablat 0004F5  
                      __end_of_ADC_EnableChannelSequencer 499A  
                           ?i2_ADC_EnableChannelSequencer 0501  
                              _ADC_EnableChannelSequencer 4994  
                                                   status 0004D8  
                        _ADC_DefaultContext2Threshold_ISR 000000  
                        _UART1_DefaultFramingErrorHandler 000000  
                                         __initialization 486E  
                                          ?_ADC_ADCH4_ISR 0501  
                                            __end_of_main 47FA  
                                            __end_of_dtoa 3B2A  
                            __size_ofi2_ADC_SelectContext 000A  
                             ?_INTERRUPT_InterruptManager 0501  
                                            ?_UART1_Write 0501  
                                                  ??_main 05BE  
                                                  ??_dtoa 0528  
                                           __activetblptr 000003  
                                        _UART1_Initialize 459E  
                                                  _ADACCH 0003E4  
                                                  _ADACCL 0003E3  
                                 __end_of_TMR0_StartTimer 4994  
                                                  _ADACCU 0003E5  
                                                  _ADACQH 0003EF  
                                                  _ADACQL 0003EE  
                                                  _ADCON0 0003F3  
                                                  _ADCON1 0003F4  
                                                  _ADCON2 0003F5  
                                                  _ADCON3 0003F6  
                                                  _ADERRH 0003DE  
                                                  _ADERRL 0003DD  
                                                  ?_fputc 0503  
                                                  _ADLTHH 0003DA  
                                                  _ADLTHL 0003D9  
                                                  ?_fputs 050C  
                                                  _ADRESH 0003EB  
                                                  _ADRESL 0003EA  
                                                  _ADPREH 0003F2  
                                                  _ADPREL 0003F1  
                                                  _ADSTAT 0003F7  
                                                  _ADUTHH 0003DC  
                                                  _ADUTHL 0003DB  
                                                  _ANSELA 000400  
                                                  ?_putch 0501  
                                                  _ANSELB 000408  
                                                  _ANSELC 000410  
                                                  _ANSELD 000418  
                                                  _ANSELE 000420  
                                                  _ANSELF 000428  
                                                  _T0CON0 00031A  
                                                  _T0CON1 00031B  
                                                  _U1CON0 0002AB  
                                                  _U1CON1 0002AC  
                                                  _U1CON2 0002AD  
                                                  _U1BRGH 0002AF  
                                                  _U1FIFO 0002B0  
                                                  _U1BRGL 0002AE  
                                                  _ODCONA 000402  
                                                  _ODCONB 00040A  
                                                  _ODCONC 000412  
                                                  _RF0PPS 000229  
                                                  _ODCOND 00041A  
                                                  _ODCONE 000422  
                                                  _ODCONF 00042A  
                                                  i2l2200 4766  
                                                  i2l2210 3F6E  
                                                  i2l2202 476A  
                                                  i2l1410 43F0  
                                                  i2l2220 3FCE  
                                                  i2l2212 3F7C  
                                                  i2l2204 4786  
                                                  i2l2300 4410  
                                                  i2l1413 4432  
                                                  i2l1421 38E6  
                                                  i2l2230 4018  
                                                  i2l2222 3FD2  
                                                  i2l2214 3F9C  
                                                  i2l2310 471A  
                                                  i2l2302 4414  
                                                  i2l1415 446E  
                                                  i2l1423 38EE  
                                                  i2l2240 4088  
                                                  i2l2232 4026  
                                                  i2l2224 3FDE  
                                                  i2l2216 3FA0  
                                                  i2l2208 3F6A  
                                                  i2l2312 4734  
                                                  i2l2304 4442  
                                                  i2l2320 38AE  
                                                  i2l2400 3EFC  
                                                  i2l1441 3B28  
                                                  i2l2242 409A  
                                                  i2l2234 4038  
                                                  i2l2226 3FFC  
                                                  i2l2218 3FAE  
                                                  i2l2170 48AE  
                                                  i2l2306 4456  
                                                  i2l2330 3908  
                                                  i2l2322 38BE  
                                                  i2l2314 3846  
                                                  i2l2410 3F26  
                                                  i2l2236 4066  
                                                  i2l2228 4004  
                                                  i2l2244 40A0  
                                                  i2l2260 4128  
                                                  i2l2252 40F2  
                                                  i2l2172 48BC  
                                                  i2l2180 452C  
                                                  i2l2340 3932  
                                                  i2l2332 3916  
                                                  i2l2324 38C0  
                                                  i2l2316 3866  
                                                  i2l2412 3F52  
                                                  i2l2404 3F08  
                                                  i2l2420 4622  
                                                  i2l2246 40B0  
                                                  i2l2238 4086  
                                                  i2l2270 4190  
                                                  i2l2262 4136  
                                                  i2l2254 40F6  
                                                  i2l1462 4758  
                                                  i2l2174 4986  
                                                  i2l2182 4536  
                                                  i2l2190 46D6  
                                                  i2l2350 3A3E  
                                                  i2l2342 39B4  
                                                  i2l2334 391C  
                                                  i2l2326 38DA  
                                                  i2l2318 388E  
                                                  i2l2406 3F1A  
                                                  i2l1454 467A  
                                                  i2l2422 4630  
                                                  i2l1455 4682  
                                                  i2l1383 486C  
                                                  i2l2248 40D0  
                                                  i2l2272 419E  
                                                  i2l2280 4204  
                                                  i2l2264 4156  
                                                  i2l2256 4104  
                                                  i2l2184 4554  
                                                  i2l2176 4508  
                                                  i2l2192 46E2  
                                                  i2l2360 3AB2  
                                                  i2l2352 3A5C  
                                                  i2l2344 39BA  
                                                  i2l2336 3924  
                                                  i2l2328 38F6  
                                                  i2l1448 3F68  
                                                  i2l2424 4656  
                                                  i2l2600 439C  
                                                  i2l2282 4214  
                                                  i2l2274 41CC  
                                                  i2l2266 4174  
                                                  i2l2258 4124  
                                                  i2l2186 458A  
                                                  i2l1474 459C  
                                                  i2l2178 451A  
                                                  i2l1482 4718  
                                                  i2l2194 46F4  
                                                  i2l2290 43BA  
                                                  i2l2370 3AEE  
                                                  i2l2362 3AC2  
                                                  i2l2354 3A76  
                                                  i2l2346 39C0  
                                                  i2l2338 392C  
                                                  i2l2418 461A  
                                                  i2l2450 4850  
                                                  i2l2602 4794  
                                                  i2l1459 4750  
                                                  i2l2284 4234  
                                                  i2l2276 41EC  
                                                  i2l2268 417C  
                                                  i2l2196 46F8  
                                                  i2l2292 43CE  
                                                  i2l2364 3AC8  
                                                  i2l2372 3B00  
                                                  i2l2356 3A90  
                                                  i2l2348 3A24  
                                                  i2l2380 3DA8  
                                                  i2l2604 4796  
                                                  i2l2438 48DA  
                                                  i2l2278 41FE  
                                                  i2l2198 475A  
                                                  i2l2294 43DC  
                                                  i2l2366 3ADA  
                                                  i2l2358 3AA0  
                                                  i2l2390 3E72  
                                                  i2l2382 3DBA  
                                                  i2l2454 49A0  
                                                  i2l2550 427A  
                                                  i2l2606 47AC  
                                                  i2l1488 4792  
                                                  i2l2296 43E8  
                                                  i2l2288 43AA  
                                                  i2l2368 3AE6  
                                                  i2l2384 3DBE  
                                                  i2l2376 3D6A  
                                                  i2l2448 4848  
                                                  i2l2456 49A6  
                                                  i2l2560 42AA  
                                                  i2l2552 4282  
                                                  i2l2544 4256  
                                                  i2l2298 43FC  
                                                  i2l2394 3EAA  
                                                  i2l2386 3DEA  
                                                  i2l2378 3D96  
                                                  i2l2458 497C  
                                                  i2l2570 42DA  
                                                  i2l2562 42B2  
                                                  i2l2554 4286  
                                                  i2l2546 425C  
                                                  i2l2396 3ED6  
                                                  i2l2388 3E16  
                                                  i2l2580 430A  
                                                  i2l2572 42E2  
                                                  i2l2564 42B6  
                                                  i2l2556 428C  
                                                  i2l2548 4268  
                                                  i2l2398 3EE8  
                                                  i2l2590 4324  
                                                  i2l2582 4312  
                                                  i2l2574 42E6  
                                                  i2l2566 42BC  
                                                  i2l2558 4298  
                                                  i2l2654 469C  
                                                  i2l2592 434C  
                                                  i2l2584 4316  
                                                  i2l2576 42EC  
                                                  i2l2568 42C8  
                                                  i2l2656 46AA  
                                                  i2l2594 4360  
                                                  i2l2586 431A  
                                                  i2l2578 42F8  
                                                  i2l2658 46B8  
                                                  i2l2596 4374  
                                                  i2l2588 4320  
                                                  i2l2598 4388  
                                                  _INLVLA 000404  
                                                  _INLVLB 00040C  
                                                  _INLVLC 000414  
                                                  _INLVLD 00041C  
                                                  _INLVLE 000424  
                                                  _INLVLF 00042C  
                                                  _OSCFRQ 0000B1  
                                   _UART1_SetErrorHandler 490C  
                                      _ADC_DefaultADI_ISR 000000  
                                            vfprintf@cfmt 0558  
                                               ??___aodiv 0511  
                                               ??___aomod 0511  
                                        ?_TMR0_Initialize 0501  
                                                  clear_0 4874  
                                                  isa$std 000001  
                                                  _printf 4848  
                                                  pad@buf 0515  
                                                  dtoa@fp 051E  
                                                  _strlen 475A  
                                                  fputc@c 0503  
                                          _PMD_Initialize 47FA  
                                                  fputs@c 0510  
                                                  fputs@i 0511  
                                                  fputs@s 050C  
                                            __mediumconst 0000  
                                                  tblptrh 0004F7  
                                                  tblptrl 0004F6  
                                                  tblptru 0004F8  
                               _ADC_Context4Thereshld_ISR 05A7  
                                        __end_of_vfprintf 4684  
ADC_SetActiveClockTuningInterruptHandler@InterruptHandler 05BB  
ADC_SetContext4ThresholdInterruptHandler@InterruptHandler 05BB  
ADC_SetContext3ThresholdInterruptHandler@InterruptHandler 05BB  
ADC_SetContext2ThresholdInterruptHandler@InterruptHandler 05BB  
ADC_SetContext1ThresholdInterruptHandler@InterruptHandler 05BB  
              ADC_SetADIInterruptHandler@InterruptHandler 05BB  
                    __end_of_UART1_SetOverrunErrorHandler 48FE  
                   __size_of_UART1_SetOverrunErrorHandler 000E  
                            _UART1_SetOverrunErrorHandler 48F0  
                               _UART1_DefaultErrorHandler 000000  
                         ??_ADC_UserContext4Threshold_ISR 05B6  
                           __size_of_INTERRUPT_Initialize 0004  
                                       _SYSTEM_Initialize 488E  
                                              __accesstop 0560  
                                 __end_of__initialization 4888  
                    __size_of_ADC_DisableChannelSequencer 0006  
                         ??i2_ADC_DisableChannelSequencer 0501  
                                     main@convertedValue1 0579  
                                     main@convertedValue2 0577  
                                     main@convertedValue3 0575  
                                     main@convertedValue4 0573  
                                      ?_SYSTEM_Initialize 0501  
                        _ADC_DefaultContext3Threshold_ISR 000000  
                                           ___rparam_used 000001  
                                         ??_ADC_ADCH4_ISR 0560  
                          ??i2_ADC_EnableChannelSequencer 0501  
                                          __pcstackCOMRAM 0501  
                                     ??_SYSTEM_Initialize 05BE  
                                           __end_of_fputc 459E  
                                           __end_of_fputs 471A  
                                           __end_of_putch 498E  
                                  __end_of_PMD_Initialize 4822  
                                 _ADC_GetConversionResult 48DA  
        __end_of_ADC_SetContext2ThresholdInterruptHandler 4944  
       __size_of_ADC_SetContext2ThresholdInterruptHandler 000E  
              ??_ADC_SetContext2ThresholdInterruptHandler 05BE  
               ?_ADC_SetContext2ThresholdInterruptHandler 05BB  
                _ADC_SetContext2ThresholdInterruptHandler 4936  
        __end_of_ADC_SetActiveClockTuningInterruptHandler 4960  
       __size_of_ADC_SetActiveClockTuningInterruptHandler 000E  
              ??_ADC_SetActiveClockTuningInterruptHandler 05BE  
               ?_ADC_SetActiveClockTuningInterruptHandler 05BB  
                _ADC_SetActiveClockTuningInterruptHandler 4952  
                               _UART1_FramingErrorHandler 0566  
                            ??_ADC_SetADIInterruptHandler 05BE  
                                        ?_TMR0_StartTimer 0501  
                                                 ??_fputc 0507  
                               __end_of_SYSTEM_Initialize 48AC  
                                                 ??_fputs 0510  
                                                 ??_putch 0502  
                                              __pbssBANK5 0560  
                           ?_UART1_SetOverrunErrorHandler 05BB  
                                  ?_UART1_SetErrorHandler 05BB  
                                                 IVTBASEH 00045E  
                                                 IVTBASEL 00045D  
                                                 IVTBASEU 00045F  
                                                 _ADCSEL1 0003FC  
                                                 _ADCSEL2 0003FD  
                                                 _ADCSEL3 0003FE  
                                                 _ADCSEL4 0003FF  
                                                 _ADFLTRH 0003E2  
                                                 _ADFLTRL 0003E1  
                     __size_of_ADC_SetADIInterruptHandler 000E  
                                                 _ADPREVH 0003E9  
                                                 _ADPREVL 0003E8  
                                                 _ADSTPTH 0003E0  
                                                 _ADSTPTL 0003DF  
                                                 ?_printf 055A  
                                         ?_PMD_Initialize 0501  
                                 __size_of_ADC_Initialize 0240  
                                                 ?_strlen 0501  
                                                 _U1ERRIE 0002B3  
                                                 _U1ERRIR 0002B2  
                                    __size_of_UART1_Write 0018  
                                                 _U1RXPPS 000272  
                                                 _OSCCON1 0000AD  
                                                 _OSCCON3 0000AF  
                                      __size_of_vfpfcnvrt 0200  
                                                 _OSCTUNE 0000B0  
                                                 i2u80_40 458A  
                                                 i2u80_41 4586  
                                                 i2u81_40 4718  
                                                 i2u81_41 4714  
                                                 i2u90_40 4104  
                                                 i2u82_40 4786  
                                                 i2u90_41 4100  
                                                 i2u82_41 4782  
                                                 i2u83_40 3F7C  
                                                 i2u91_40 4136  
                                                 i2u83_41 3F78  
                                                 i2u91_41 4132  
                                                 i2u84_40 3FAE  
                                                 i2u92_40 4174  
                                                 i2u76_40 48BC  
                                                 i2u84_41 3FAA  
                                                 i2u92_41 4170  
                                                 i2u76_41 48B8  
                                                 i2u93_40 419E  
                                                 i2u77_40 451A  
                                                 i2u85_41 3FD8  
                                                 i2u93_41 419A  
                                                 i2u77_41 4516  
                                                 i2u86_40 3FFC  
                                                 i2u94_40 41CC  
                                                 i2u78_40 452C  
                                                 i2u86_41 3FF8  
                                                 i2u94_41 41C8  
                                                 i2u78_41 4528  
                                                 i2u87_40 4026  
                                                 i2u95_40 4214  
                                                 i2u79_40 4554  
                                                 i2u87_41 4022  
                                                 i2u95_41 4210  
                                                 i2u79_41 4550  
                                                 i2u88_40 4066  
                                                 i2u96_40 43BA  
                                                 i2u88_41 4062  
                                                 i2u96_41 43B6  
                                                 i2u89_40 40B0  
                                                 i2u97_40 43DC  
                                                 i2u89_41 40AC  
                                                 i2u97_41 43D8  
                                                 i2u98_40 4432  
                                                 i2u98_41 442E  
                                                 i2u99_40 4442  
                                                 i2u99_41 443E  
                                                 _SLRCONA 000403  
                                                 _SLRCONB 00040B  
                                                 _SLRCONC 000413  
                                                 _SLRCOND 00041B  
                                                 _SLRCONE 000423  
                                                 _SLRCONF 00042B  
                                     i2_ADC_SelectContext 497A  
                              _ADC_ConversionComplete_ISR 05B3  
                             ?_ADC_EnableChannelSequencer 0501  
                   __end_of_ADC_UserContext4Threshold_ISR 43AA  
                  __size_of_ADC_UserContext4Threshold_ISR 0154  
                           _ADC_UserContext4Threshold_ISR 4256  
                     fp__ADC_DefaultContext4Threshold_ISR 0000  
                __end_of_ADC_DefaultContext4Threshold_ISR 49B2  
               __size_of_ADC_DefaultContext4Threshold_ISR 0002  
                      ??_ADC_DefaultContext4Threshold_ISR 0501  
                       ?_ADC_DefaultContext4Threshold_ISR 0501  
                        _ADC_DefaultContext4Threshold_ISR 49B0  
                                                 __Hparam 0000  
                                                 __Lparam 0000  
                                __end_of_UART1_Initialize 461A  
                   __end_ofi2_ADC_DisableChannelSequencer 49AC  
                  __size_ofi2_ADC_DisableChannelSequencer 0006  
                           i2_ADC_DisableChannelSequencer 49A6  
                                                 ___aodiv 3F6A  
                                                 ___aomod 40F2  
                                    ?i2_ADC_SelectContext 0501  
                                               ?_vfprintf 0552  
                                            __psmallconst 3800  
                               ??_ADC_GetConversionResult 0503  
                                                 __pcinit 486E  
                                                 __ramtop 3800  
                                                 __ptext0 47C8  
                                                 __ptext1 498E  
                                                 __ptext2 488E  
                                                 __ptext3 459E  
                                                 __ptext4 48F0  
                                                 __ptext5 48FE  
                                                 __ptext6 490C  
                                                 __ptext7 48C4  
                                                 __ptext8 47FA  
                                                 __ptext9 4470  
                                         __size_of_printf 0026  
                                         __size_of_strlen 003A  
                                   _OSCILLATOR_Initialize 4822  
                                            __size_of_abs 0040  
                                            __size_of_pad 00C6  
                                ??_PIN_MANAGER_Initialize 05BB  
                              __size_of_SYSTEM_Initialize 001E  
                                    end_of_initialization 4888  
                                                 fputc@fp 0505  
                                                 fputs@fp 050E  
                          ??_UART1_SetOverrunErrorHandler 05BE  
                                       __end_of_vfpfcnvrt 3F6A  
                                                 postdec2 0004DD  
                                                 postinc0 0004EE  
                                                 postinc1 0004E6  
                                                 postinc2 0004DE  
                                   ??i2_ADC_SelectContext 0501  
                                              ??_vfprintf 0558  
                                       UART1_Write@txData 0501  
                                                 strlen@a 0503  
                                                 strlen@s 0501  
                      __end_of_ADC_SetADIInterruptHandler 496E  
                              _ADC_SetADIInterruptHandler 4960  
                                             _ADCSEL1bits 0003FC  
                                             _ADCSEL2bits 0003FD  
                                             _ADCSEL3bits 0003FE  
                                             _ADCSEL4bits 0003FF  
                        fp__ADC_UserContext4Threshold_ISR 0000  
                          ?_ADC_UserContext4Threshold_ISR 0501  
                            __end_of_INTERRUPT_Initialize 49B0  
                                             vfpfcnvrt@ap 0546  
                                             vfpfcnvrt@fp 0542  
                                             vfpfcnvrt@ll 054A  
                     __end_of_ADC_DisableChannelSequencer 49A0  
                          ?i2_ADC_DisableChannelSequencer 0501  
                             _ADC_DisableChannelSequencer 499A  
                                          _ADC_Initialize 3B2A  
                                  ?_OSCILLATOR_Initialize 0501  
                                          __end_of_printf 486E  
                                          __end_of_strlen 4794  
                                     start_initialization 486E  
                                __size_of_TMR0_Initialize 0016  
                         __size_of_PIN_MANAGER_Initialize 0098  
                                             __end_of_abs 475A  
                                             __end_of_pad 4470  
                           ??_ADC_DisableChannelSequencer 05BB  
                              i2ADC_SelectContext@context 0501  
                                 ??_UART1_SetErrorHandler 05BE  
                                             putch@txData 0502  
                                              ivt0x8_base 0008  
                                   __end_of_ADC_ADCH4_ISR 47C8  
                                             vfprintf@fmt 0554  
                                        ??_PMD_Initialize 05BB  
        __end_of_ADC_SetContext1ThresholdInterruptHandler 4952  
       __size_of_ADC_SetContext1ThresholdInterruptHandler 000E  
              ??_ADC_SetContext1ThresholdInterruptHandler 05BE  
               ?_ADC_SetContext1ThresholdInterruptHandler 05BB  
                _ADC_SetContext1ThresholdInterruptHandler 4944  
                                  __end_of_ADC_Initialize 3D6A  
                                                ??_printf 055E  
                                                ??_strlen 0503  
                                      main@convertedValue 0571  
                                      _UART1_ErrorHandler 0560  
                                           __pcstackBANK5 05B6  
                                        ___aodiv@dividend 0501  
        __end_of_ADC_SetContext4ThresholdInterruptHandler 4928  
       __size_of_ADC_SetContext4ThresholdInterruptHandler 000E  
              ??_ADC_SetContext4ThresholdInterruptHandler 05BE  
               ?_ADC_SetContext4ThresholdInterruptHandler 05BB  
                _ADC_SetContext4ThresholdInterruptHandler 491A  
                                               __pnvBANK5 05A4  
                                __size_of_TMR0_StartTimer 0006  
                                  _PIN_MANAGER_Initialize 4470  
                                               _dtoa$1836 0530  
                                       ?_UART1_Initialize 0501  
                    __end_of_UART1_SetFramingErrorHandler 490C  
                   __size_of_UART1_SetFramingErrorHandler 000E  
                            _UART1_SetFramingErrorHandler 48FE  
                                                ?___aodiv 0501  
                                                ?___aomod 0501  
                                        ___aodiv@quotient 0513  
                                      ??_UART1_Initialize 05BE  
                                         ?_ADC_Initialize 0501  
                                       _ADC_SelectContext 496E  
                                        _uart1RxLastError 0583  
                                           ??_UART1_Write 0501  
                            ??_INTERRUPT_InterruptManager 05B7  
                                                _ADACTPPS 000269  
                                       __size_of_vfprintf 006A  
                                      ?_ADC_SelectContext 0501  
                                             __smallconst 3800  
                        _UART1_DefaultOverrunErrorHandler 000000  
                                                _ADCPbits 0003D8  
                                     ??_ADC_SelectContext 05BB  
                                          __size_of_fputc 0096  
                                          __size_of_fputs 0044  
                                             _U1ERRIRbits 0002B2  
                                          __size_of_putch 000A  
                                    _INTERRUPT_Initialize 49AC  
                                       ??_TMR0_Initialize 05BB  
                   UART1_SetErrorHandler@interruptHandler 05BB  
                                                _LATFbits 0004C3  
                                                _PIE2bits 0004A0  
                                                i2u100_40 4734  
                                                i2u100_41 4730  
                                                i2u101_40 3876  
                                                i2u101_41 3870  
                                                i2u110_40 3A76  
                                                i2u102_40 3878  
                                                i2u110_41 3A72  
                                                i2u111_40 3A90  
                                                i2u103_40 388E  
                                                i2u111_41 3A8C  
                                                i2u103_41 388A  
                                                i2u112_40 3AA0  
                                                i2u104_40 38BE  
                                                i2u120_40 467A  
                                                i2u112_41 3A9C  
                                                i2u104_41 38BA  
                                                i2u120_41 4676  
                                                i2u113_40 3AB2  
                                                i2u105_40 38DA  
                                                i2u113_41 3AAE  
                                                i2u105_41 38D6  
                                                i2u114_40 3AC2  
                                                i2u106_40 3908  
                                                i2u122_40 427A  
                                                i2u114_41 3ABE  
                                                i2u106_41 3904  
                                                i2u122_41 4276  
                                                i2u115_40 3ADA  
                                                i2u107_40 3916  
                                                i2u123_40 42AA  
                                                i2u115_41 3AD6  
                                                i2u107_41 3912  
                                                i2u123_41 42A6  
                                                i2u108_40 3A3E  
                                                i2u116_40 3D96  
                                                i2u124_40 42DA  
                                                i2u108_41 3A3A  
                                                i2u116_41 3D92  
                                                i2u124_41 42D6  
                                                i2u109_40 3A5C  
                                                i2u117_40 3DEA  
                                                i2u125_40 430A  
                                                i2u109_41 3A58  
                                                i2u117_41 3DE6  
                                                i2u125_41 4306  
                                                i2u118_40 3E16  
                                                i2u126_40 4334  
                                                i2u118_41 3E12  
                                                i2u126_41 432E  
                                                i2u126_46 4336  
                                                i2u119_40 3ED6  
                                                i2u127_40 47AC  
                                                i2u119_41 3ED2  
                                                i2u127_41 47A8  
                     __size_of_INTERRUPT_InterruptManager 0052  
                                                i2u136_40 46AA  
                                                i2u136_41 46A6  
                                                i2u128_48 47B2  
                                                i2u137_40 46B8  
                                                i2u128_49 47C6  
                                                i2u137_41 46B4  
                                                _PIR1bits 0004AF  
                                                _PIR2bits 0004B0  
                                                _PIR3bits 0004B1  
                                                _PIR4bits 0004B2  
                               _ADC_ActiveClockTuning_ISR 05A4  
                               __end_of_ADC_SelectContext 497A  
                        _ADC_DefaultActiveClockTuning_ISR 000000  
                           ?_UART1_SetFramingErrorHandler 05BB  
                                               _vfpfcnvrt 3D6A  
                                              _ADCON0bits 0003F3  
                                              _ADCON1bits 0003F4  
                                              _ADCON2bits 0003F5  
                                              _ADCON3bits 0003F6  
                             ?_ADC_SetADIInterruptHandler 05BB  
                                     __end_of_UART1_Write 48C4  
                                             _INTCON0bits 0004D6  
                                   ?_INTERRUPT_Initialize 0501  
                             __end_ofi2_ADC_SelectContext 4984  
                                              _ADSTATbits 0003F7  
                                                __Hrparam 0000  
                                              vfprintf@ap 0556  
                                                __Lrparam 0000  
                                              vfprintf@fp 0552  
                                ?_ADC_GetConversionResult 0501  
                                 ??_OSCILLATOR_Initialize 05BB  
                                       ??_TMR0_StartTimer 05BB  
                                        __size_of___aodiv 0188  
                                        __size_of___aomod 0164  
                                              ?_vfpfcnvrt 0542  
                                         ___aodiv@divisor 0509  
                                         ___aodiv@counter 0511  
                                              _T0CON0bits 00031A  
                               _ADC_Context1Thereshld_ISR 05B0  
                                                __pivt0x8 0008  
                                                __ptext10 4822  
                                                __ptext11 49AC  
                                                __ptext20 4994  
                                                __ptext12 3B2A  
                                                __ptext21 499A  
                                                __ptext13 491A  
                                                __ptext30 461A  
                                                __ptext22 4684  
                                                __ptext14 4928  
                                                __ptext31 3D6A  
                                                __ptext23 4794  
                                                __ptext15 4936  
                                                __ptext40 40F2  
                                                __ptext32 3846  
                                                __ptext24 49B0  
                                                __ptext16 4944  
                                                __ptext41 3F6A  
                                                __ptext33 43AA  
                                                __ptext25 4256  
                                                __ptext17 4952  
                                                __ptext42 48DA  
                                                __ptext34 475A  
                                                __ptext26 497A  
                                                __ptext18 4960  
                                                __ptext43 0000  
                                                __ptext35 46D6  
                                                __ptext27 49A0  
                                                __ptext19 496E  
                                                __ptext36 4508  
                                                __ptext28 49A6  
                                                __ptext37 4984  
                                                __ptext29 4848  
                                                __ptext38 48AC  
                                                __ptext39 471A  
                                ADC_SelectContext@context 05BB  
                                              _U1CON0bits 0002AB  
                          __size_of_UART1_SetErrorHandler 000E  
                           __end_of_UART1_SetErrorHandler 491A  
                                           __size_of_main 0032  
                                           __size_of_dtoa 02E4  
                               _UART1_OverrunErrorHandler 0563  
            UART1_SetOverrunErrorHandler@interruptHandler 05BB  
                                                isa$xinst 000000  
                              __size_of_ADC_SelectContext 000C  
                                                _vfprintf 461A  
                      __end_of_INTERRUPT_InterruptManager 46D6  
                              _INTERRUPT_InterruptManager 4684  
                                               printf@fmt 055A  
                                             _UART1_Write 48AC  
                                        ___aomod@dividend 0501  
                          ??_UART1_SetFramingErrorHandler 05BE  
                                  ??_INTERRUPT_Initialize 05BB  
                                                intlevel2 0000  
                                 ?_PIN_MANAGER_Initialize 0501  
                            ??_ADC_EnableChannelSequencer 05BB  
                         __end_of_ADC_GetConversionResult 48F0  
                                        ??_ADC_Initialize 05BE  
                                                printf@ap 055E  
            UART1_SetFramingErrorHandler@interruptHandler 05BB  
                                         ___aomod@divisor 0509  
                                             ??_vfpfcnvrt 0548  
                                         ___aomod@counter 0511  
                                         _TMR0_Initialize 48C4  
                               _ADC_Context2Thereshld_ISR 05AD  
                               __size_of_UART1_Initialize 007C  
                     __size_of_ADC_EnableChannelSequencer 0006  
                                  __size_of_ADC_ADCH4_ISR 0034  
        __end_of_ADC_SetContext3ThresholdInterruptHandler 4936  
       __size_of_ADC_SetContext3ThresholdInterruptHandler 000E  
              ??_ADC_SetContext3ThresholdInterruptHandler 05BE  
               ?_ADC_SetContext3ThresholdInterruptHandler 05BB  
                _ADC_SetContext3ThresholdInterruptHandler 4928  
                                            ___aodiv@sign 0512  
                          __end_of_PIN_MANAGER_Initialize 4508  
                        _ADC_DefaultContext1Threshold_ISR 000000  
                                            ___aomod@sign 0512  
